ccopy_reg
_reconstructor
p0
(cmatplotlib.axes._subplots
_PicklableSubplotClassConstructor
p1
c__builtin__
object
p2
Ntp3
Rp4
(cmatplotlib.axes._axes
Axes
p5
tp6
Rp7
(dp8
S'transLimits'
p9
g0
(cmatplotlib.transforms
BboxTransformFrom
p10
g2
Ntp11
Rp12
(dp13
S'_invalid'
p14
I2
sS'_boxin'
p15
g0
(cmatplotlib.transforms
TransformedBbox
p16
g2
Ntp17
Rp18
(dp19
g14
I2
sS'_bbox'
p20
g0
(cmatplotlib.transforms
Bbox
p21
g2
Ntp22
Rp23
(dp24
g14
I2
sS'_minpos'
p25
cnumpy.core.multiarray
_reconstruct
p26
(cnumpy
ndarray
p27
(I0
tp28
S'b'
p29
tp30
Rp31
(I1
(L2L
tp32
cnumpy
dtype
p33
(S'f8'
p34
I0
I1
tp35
Rp36
(I3
S'<'
p37
NNNI-1
I-1
I0
tp38
bI00
S'\x00\x00\x00\x00\x00\x00\xf0\x7f\x00\x00\x00\x00\x00\x00\xf0\x7f'
p39
tp40
bsS'_parents'
p41
(dp42
L412469232L
g18
ssS'_points_orig'
p43
g26
(g27
(I0
tp44
g29
tp45
Rp46
(I1
(L2L
L2L
tp47
g36
I00
S'\x00\x00\x00\x00\x00\x00\x00\x00\x00\x00\x00\x00\x00\x00\x00\x00\x00\x00\x00\x00\x00\x00\xf0?\x00\x00\x00\x00\x00\x00\xf0?'
p48
tp49
bsS'_points'
p50
g26
(g27
(I0
tp51
g29
tp52
Rp53
(I1
(L2L
L2L
tp54
g36
I00
S'\x00\x00\x00\x00\x00\x00\xe0\xbfM\x04D\xd9\x171\x91\xc0\x00\x00\x00\x00\x00\x00%@\xa5E)M\xef\x95\xd6@'
p55
tp56
bsS'_ignore'
p57
I01
sS'_shorthand_name'
p58
V
p59
sbsS'_transform'
p60
g0
(cmatplotlib.transforms
TransformWrapper
p61
g2
Ntp62
Rp63
(dp64
Voutput_dims
p65
I2
sVparents
p66
(dp67
L412469232L
g18
sL226017464L
g0
(cmatplotlib.transforms
CompositeGenericTransform
p68
g2
Ntp69
Rp70
(dp71
g14
I2
sS'input_dims'
p72
I2
sS'_a'
p73
g63
sS'output_dims'
p74
I2
sS'_b'
p75
g0
(g68
g2
Ntp76
Rp77
(dp78
g14
I2
sg72
I2
sg73
g12
sg74
I2
sg75
g0
(cmatplotlib.transforms
BboxTransformTo
p79
g2
Ntp80
Rp81
(dp82
g14
I1
sS'_mtx'
p83
NsS'_inverted'
p84
NsS'_boxout'
p85
g0
(g16
g2
Ntp86
Rp87
(dp88
g14
I1
sg20
g0
(g21
g2
Ntp89
Rp90
(dp91
g14
I0
sg25
g26
(g27
(I0
tp92
g29
tp93
Rp94
(I1
(L2L
tp95
g36
I00
S'\x00\x00\x00\x00\x00\x00\xf0\x7f\x00\x00\x00\x00\x00\x00\xf0\x7f'
p96
tp97
bsg41
(dp98
L226019032L
g87
ssg43
g26
(g27
(I0
tp99
g29
tp100
Rp101
(I1
(L2L
L2L
tp102
g36
I00
S'\x00\x00\x00\x00\x00\x00\xc0?(\\\x8f\xc2\xf5(\xbc?\xcd\xcc\xcc\xcc\xcc\xcc\xec?)\\\x8f\xc2\xf5(\xec?'
p103
tp104
bsg50
g26
(g27
(I0
tp105
g29
tp106
Rp107
(I1
(L2L
L2L
tp108
g36
I00
S'\x00\x00\x00\x00\x00\x00\xc0?(\\\x8f\xc2\xf5(\xbc?\xcd\xcc\xcc\xcc\xcc\xcc\xec?)\\\x8f\xc2\xf5(\xec?'
p109
tp110
bsg57
I01
sg58
g59
sbsg60
g0
(g79
g2
Ntp111
Rp112
(dp113
g14
I2
sg83
Nsg84
Nsg85
g0
(g16
g2
Ntp114
Rp115
(dp116
g14
I0
sg20
g0
(g21
g2
Ntp117
Rp118
(dp119
g14
I0
sg25
g26
(g27
(I0
tp120
g29
tp121
Rp122
(I1
(L2L
tp123
g36
I00
S'\x00\x00\x00\x00\x00\x00\xf0\x7f\x00\x00\x00\x00\x00\x00\xf0\x7f'
p124
tp125
bsg41
(dp126
L260592752L
g115
ssg43
g26
(g27
(I0
tp127
g29
tp128
Rp129
(I1
(L2L
L2L
tp130
g36
I00
S'\x00\x00\x00\x00\x00\x00\x00\x00\x00\x00\x00\x00\x00\x00\x00\x00\x00\x00\x00\x00\x00\x00 @\x00\x00\x00\x00\x00\x00\x16@'
p131
tp132
bsg50
g26
(g27
(I0
tp133
g29
tp134
Rp135
(I1
(L2L
L2L
tp136
g36
I00
S'\x00\x00\x00\x00\x00\x00\x00\x00\x00\x00\x00\x00\x00\x00\x00\x00\x00\x00\x00\x00\x00\x00 @\x00\x00\x00\x00\x00\x00\x16@'
p137
tp138
bsg57
I01
sg58
g59
sbsg60
g0
(cmatplotlib.transforms
Affine2D
p139
g2
Ntp140
Rp141
(dp142
g14
I0
sg84
Nsg83
g26
(g27
(I0
tp143
g29
tp144
Rp145
(I1
(L3L
L3L
tp146
g36
I00
S'\x00\x00\x00\x00\x00\x00Y@\x00\x00\x00\x00\x00\x00\x00\x00\x00\x00\x00\x00\x00\x00\x00\x00\x00\x00\x00\x00\x00\x00\x00\x00\x00\x00\x00\x00\x00\x00Y@\x00\x00\x00\x00\x00\x00\x00\x00\x00\x00\x00\x00\x00\x00\x00\x00\x00\x00\x00\x00\x00\x00\x00\x00\x00\x00\x00\x00\x00\x00\xf0?'
p147
tp148
bsg58
g59
sg41
(dp149
L260428800L
g0
(cmatplotlib.transforms
ScaledTranslation
p150
g2
Ntp151
Rp152
(dp153
g14
I1
sg83
NsS'_scale_trans'
p154
g141
sg84
NsS'_t'
p155
(F0.09722222222222222
I0
tp156
sg58
g59
sg41
(dp157
L260431656L
g0
(g68
g2
Ntp158
Rp159
(dp160
g14
I2
sg72
I2
sg73
g0
(cmatplotlib.transforms
BlendedGenericTransform
p161
g2
Ntp162
Rp163
(dp164
g14
I2
sS'_y'
p165
g70
sS'_x'
p166
g81
sS'_affine'
p167
Nsg41
(dp168
L428793472L
g0
(g68
g2
Ntp169
Rp170
(dp171
g14
I2
sg72
I2
sg73
g163
sg74
I2
sg75
g0
(g150
g2
Ntp172
Rp173
(dp174
g14
I1
sg83
Nsg154
g141
sg84
Nsg155
(F-0.04722222222222222
I0
tp175
sg58
g59
sg41
(dp176
L428793472L
g170
ssbsg41
(dp177
sg58
g59
sbsL428789888L
g0
(g68
g2
Ntp178
Rp179
(dp180
g14
I2
sg72
I2
sg73
g163
sg74
I2
sg75
g0
(g150
g2
Ntp181
Rp182
(dp183
g14
I1
sg83
Nsg154
g141
sg84
Nsg155
(F-0.09722222222222222
I0
tp184
sg58
g59
sg41
(dp185
L428789888L
g179
ssbsg41
(dp186
sg58
g59
sbsL260431320L
g0
(g68
g2
Ntp187
Rp188
(dp189
g14
I2
sg72
I2
sg73
g163
sg74
I2
sg75
g0
(g150
g2
Ntp190
Rp191
(dp192
g14
I1
sg83
Nsg154
g141
sg84
Nsg155
(F-0.09722222222222222
I0
tp193
sg58
g59
sg41
(dp194
L260431320L
g188
ssbsg41
(dp195
sg58
g59
sbsL278587208L
g0
(g68
g2
Ntp196
Rp197
(dp198
g14
I2
sg72
I2
sg73
g163
sg74
I2
sg75
g0
(g150
g2
Ntp199
Rp200
(dp201
g14
I1
sg83
Nsg154
g141
sg84
Nsg155
(F0.04722222222222222
I0
tp202
sg58
g59
sg41
(dp203
L278587208L
g197
ssbsg41
(dp204
sg58
g59
sbsL278589168L
g0
(g68
g2
Ntp205
Rp206
(dp207
g14
I2
sg72
I2
sg73
g163
sg74
I2
sg75
g0
(g150
g2
Ntp208
Rp209
(dp210
g14
I1
sg83
Nsg154
g141
sg84
Nsg155
(F-0.04722222222222222
I0
tp211
sg58
g59
sg41
(dp212
L278589168L
g206
ssbsg41
(dp213
sg58
g59
sbsL260431656L
g159
sL208771896L
g0
(g68
g2
Ntp214
Rp215
(dp216
g14
I2
sg72
I2
sg73
g163
sg74
I2
sg75
g0
(g150
g2
Ntp217
Rp218
(dp219
g14
I1
sg83
Nsg154
g141
sg84
Nsg155
(F0.09722222222222222
I0
tp220
sg58
g59
sg41
(dp221
L208771896L
g215
ssbsg41
(dp222
sg58
g59
sbsL428792408L
g0
(g68
g2
Ntp223
Rp224
(dp225
g14
I2
sg72
I2
sg73
g163
sg74
I2
sg75
g0
(g150
g2
Ntp226
Rp227
(dp228
g14
I1
sg83
Nsg154
g141
sg84
Nsg155
(F0.04722222222222222
I0
tp229
sg58
g59
sg41
(dp230
L428792408L
g224
ssbsg41
(dp231
sg58
g59
sbssg58
g59
sbsg74
I2
sg75
g152
sg41
(dp232
sg58
g59
sbssbsL278586816L
g200
sL278587880L
g0
(g150
g2
Ntp233
Rp234
(dp235
g14
I1
sg83
Nsg154
g141
sg84
Nsg155
(I0
F-0.04722222222222222
tp236
sg58
g59
sg41
(dp237
L278585752L
g0
(g68
g2
Ntp238
Rp239
(dp240
g14
I2
sg72
I2
sg73
g0
(g161
g2
Ntp241
Rp242
(dp243
g14
I2
sg165
g81
sg166
g70
sg167
Nsg41
(dp244
L278627552L
g0
(g68
g2
Ntp245
Rp246
(dp247
g14
I2
sg72
I2
sg73
g242
sg74
I2
sg75
g0
(g150
g2
Ntp248
Rp249
(dp250
g14
I1
sg83
Nsg154
g141
sg84
Nsg155
(I0
F-0.04722222222222222
tp251
sg58
g59
sg41
(dp252
L278627552L
g246
ssbsg41
(dp253
sg58
g59
sbsL278627216L
g0
(g68
g2
Ntp254
Rp255
(dp256
g14
I2
sg72
I2
sg73
g242
sg74
I2
sg75
g0
(g150
g2
Ntp257
Rp258
(dp259
g14
I1
sg83
Nsg154
g141
sg84
Nsg155
(I0
F-0.09722222222222222
tp260
sg58
g59
sg41
(dp261
L278627216L
g255
ssbsg41
(dp262
sg58
g59
sbsL278627048L
g0
(g68
g2
Ntp263
Rp264
(dp265
g14
I2
sg72
I2
sg73
g242
sg74
I2
sg75
g0
(g150
g2
Ntp266
Rp267
(dp268
g14
I1
sg83
Nsg154
g141
sg84
Nsg155
(I0
F0.04722222222222222
tp269
sg58
g59
sg41
(dp270
L278627048L
g264
ssbsg41
(dp271
sg58
g59
sbsL278588720L
g0
(g68
g2
Ntp272
Rp273
(dp274
g14
I2
sg72
I2
sg73
g242
sg74
I2
sg75
g0
(g150
g2
Ntp275
Rp276
(dp277
g14
I1
sg83
Nsg154
g141
sg84
Nsg155
(I0
F-0.09722222222222222
tp278
sg58
g59
sg41
(dp279
L278588720L
g273
ssbsg41
(dp280
sg58
g59
sbsL278588944L
g0
(g68
g2
Ntp281
Rp282
(dp283
g14
I2
sg72
I2
sg73
g242
sg74
I2
sg75
g0
(g150
g2
Ntp284
Rp285
(dp286
g14
I1
sg83
Nsg154
g141
sg84
Nsg155
(I0
F0.09722222222222222
tp287
sg58
g59
sg41
(dp288
L278588944L
g282
ssbsg41
(dp289
sg58
g59
sbsL278585752L
g239
sL278627664L
g0
(g68
g2
Ntp290
Rp291
(dp292
g14
I2
sg72
I2
sg73
g242
sg74
I2
sg75
g0
(g150
g2
Ntp293
Rp294
(dp295
g14
I1
sg83
Nsg154
g141
sg84
Nsg155
(I0
F0.09722222222222222
tp296
sg58
g59
sg41
(dp297
L278627664L
g291
ssbsg41
(dp298
sg58
g59
sbsL278585920L
g0
(g68
g2
Ntp299
Rp300
(dp301
g14
I2
sg72
I2
sg73
g242
sg74
I2
sg75
g0
(g150
g2
Ntp302
Rp303
(dp304
g14
I1
sg83
Nsg154
g141
sg84
Nsg155
(I0
F0.04722222222222222
tp305
sg58
g59
sg41
(dp306
L278585920L
g300
ssbsg41
(dp307
sg58
g59
sbssg58
g59
sbsg74
I2
sg75
g234
sg41
(dp308
sg58
g59
sbssbsL428791624L
g182
sL278588104L
g303
sL278630240L
g249
sL278586424L
g209
sL428791792L
g227
sL260592752L
g115
sL260430872L
g0
(g150
g2
Ntp309
Rp310
(dp311
g14
I1
sg83
Nsg154
g141
sg84
Nsg155
(F0.0
F0.08333333333333333
tp312
sg58
g59
sg41
(dp313
L278628112L
g0
(g68
g2
Ntp314
Rp315
(dp316
g14
I1
sg72
I2
sg73
g81
sg74
I2
sg75
g310
sg41
(dp317
sg58
g59
sbsL278628392L
g0
(g68
g2
Ntp318
Rp319
(dp320
g14
I1
sg72
I2
sg73
g81
sg74
I2
sg75
g310
sg41
(dp321
sg58
g59
sbsL278628728L
g0
(g68
g2
Ntp322
Rp323
(dp324
g14
I1
sg72
I2
sg73
g81
sg74
I2
sg75
g310
sg41
(dp325
sg58
g59
sbssbsL278629792L
g267
sL278589280L
g276
sL278627384L
g294
sL278587936L
g285
sL260431768L
g191
sL273915520L
g218
sL428790448L
g173
sL278629120L
g258
ssbsg50
g26
(g27
(I0
tp326
g29
tp327
Rp328
(I1
(L2L
L2L
tp329
g36
I00
S'\x00\x00\x00\x00\x00\x00\x00\x00\x00\x00\x00\x00\x00\x00\x00\x00\x00\x00\x00\x00\x00\x00\x89@\x00\x00\x00\x00\x000\x81@'
p330
tp331
bsg41
(dp332
L260593760L
g112
ssg58
g59
sbsg41
(dp333
L226019032L
g87
ssg58
g59
sbsg50
Nsg41
(dp334
L284899032L
g81
ssg58
g59
sbsg41
(dp335
L278601344L
g0
(g68
g2
Ntp336
Rp337
(dp338
g14
I1
sg72
I2
sg73
g0
(g68
g2
Ntp339
Rp340
(dp341
g14
I1
sg72
I2
sg73
g0
(g79
g2
Ntp342
Rp343
(dp344
g14
I1
sg83
Nsg84
Nsg85
g0
(g21
g2
Ntp345
Rp346
(dp347
g14
I1
sg25
g26
(g27
(I0
tp348
g29
tp349
Rp350
(I1
(L2L
tp351
g36
I00
S'\x00\x00\x00\x00\x00\x00\xf0\x7f\x00\x00\x00\x00\x00\x00\xf0\x7f'
p352
tp353
bsg41
(dp354
L278598824L
g343
ssg43
g26
(g27
(I0
tp355
g29
tp356
Rp357
(I1
(L2L
L2L
tp358
g36
I00
S'\x00\x00\x00\x00\x00\x00\x00\x00\x00\x00\x00\x00\x00\x00\x00\x00\x00\x00\x00\x00\x00\x00\xf0?\x00\x00\x00\x00\x00\x00\xf0?'
p359
tp360
bsg50
g26
(g27
(I0
tp361
g29
tp362
Rp363
(I1
(L2L
L2L
tp364
g36
I00
S'\x00\x00\x00\x00\x00\x00\x00\x00\x00\x00\x00\x00\x00\x00\x00\x00\x00\x00\x00\x00\x00\x00\xf0?\x00\x00\x00\x00\x00\x00\xf0?'
p365
tp366
bsg57
I01
sg58
g59
sbsg41
(dp367
L278599216L
g340
ssg58
g59
sbsg74
I2
sg75
g0
(g139
g2
Ntp368
Rp369
(dp370
g14
I2
sg84
Nsg83
g26
(g27
(I0
tp371
g29
tp372
Rp373
(I1
(L3L
L3L
tp374
g36
I00
S'\x00\x00\x00\x00\x00\x00\xf0?\x00\x00\x00\x00\x00\x00\x00\x00\x00\x00\x00\x00\x00\x00\x00\x00\x00\x00\x00\x00\x00\x00\x00\x00\x00\x00\x00\x00\x00\x00\xf0?\x00\x00\x00\x00\x00\x00\x00\x00\x00\x00\x00\x00\x00\x00\x00\x00\x00\x00\x00\x00\x00\x00\x00\x00\x00\x00\x00\x00\x00\x00\xf0?'
p375
tp376
bsg58
g59
sg41
(dp377
L278599216L
g340
ssbsg41
(dp378
L278601344L
g337
ssg58
g59
sbsg74
I2
sg75
g81
sg41
(dp379
L278601008L
g0
(g16
g2
Ntp380
Rp381
(dp382
g14
I1
sg20
g0
(g21
g2
Ntp383
Rp384
(dp385
g14
I1
sg25
g26
(g27
(I0
tp386
g29
tp387
Rp388
(I1
(L2L
tp389
g36
I00
S'\x00\x00\x00\x00\x00\x00\xf0\x7f\x00\x00\x00\x00\x00\x00\xf0\x7f'
p390
tp391
bsg41
(dp392
L278601008L
g381
ssg43
g26
(g27
(I0
tp393
g29
tp394
Rp395
(I1
(L2L
L2L
tp396
g36
I00
S'\x00\x00\x00\x00\x00\x00\x00\x00\x00\x00\x00\x00\x00\x00\x00\x00\x00\x00\x00\x00\x00\x00\xf0?\x00\x00\x00\x00\x00\x00\xf0?'
p397
tp398
bsg50
g26
(g27
(I0
tp399
g29
tp400
Rp401
(I1
(L2L
L2L
tp402
g36
I00
S'\x00\x00\x00\x00\x00\x00\x00\x00\x00\x00\x00\x00\x00\x00\x00\x00\x00\x00\x00\x00\x00\x00\xf0?\x00\x00\x00\x00\x00\x00\xf0?'
p403
tp404
bsg57
I01
sg58
g59
sbsg60
g337
sg50
Nsg41
(dp405
sg58
g59
sbssg58
g59
sbsL278628280L
g0
(g68
g2
Ntp406
Rp407
(dp408
g14
I1
sg72
I2
sg73
g0
(g68
g2
Ntp409
Rp410
(dp411
g14
I1
sg72
I2
sg73
g0
(g79
g2
Ntp412
Rp413
(dp414
g14
I1
sg83
Nsg84
Nsg85
g0
(g21
g2
Ntp415
Rp416
(dp417
g14
I1
sg25
g26
(g27
(I0
tp418
g29
tp419
Rp420
(I1
(L2L
tp421
g36
I00
S'\x00\x00\x00\x00\x00\x00\xf0\x7f\x00\x00\x00\x00\x00\x00\xf0\x7f'
p422
tp423
bsg41
(dp424
L278627496L
g413
ssg43
g26
(g27
(I0
tp425
g29
tp426
Rp427
(I1
(L2L
L2L
tp428
g36
I00
S'\x00\x00\x00\x00\x00\x00\x00\x00\x00\x00\x00\x00\x00\x00\x00\x00\x00\x00\x00\x00\x00\x00\xf0?\x00\x00\x00\x00\x00\x00\xf0?'
p429
tp430
bsg50
g26
(g27
(I0
tp431
g29
tp432
Rp433
(I1
(L2L
L2L
tp434
g36
I00
S'\x00\x00\x00\x00\x00\x00\x00\x00\x00\x00\x00\x00\x00\x00\x00\x00\x00\x00\x00\x00\x00\x00\xf0?\x00\x00\x00\x00\x00\x00\xf0?'
p435
tp436
bsg57
I01
sg58
g59
sbsg41
(dp437
L278628448L
g410
ssg58
g59
sbsg74
I2
sg75
g0
(g139
g2
Ntp438
Rp439
(dp440
g14
I2
sg84
Nsg83
g26
(g27
(I0
tp441
g29
tp442
Rp443
(I1
(L3L
L3L
tp444
g36
I00
S'\x00\x00\x00\x00\x00\x00\xf0?\x00\x00\x00\x00\x00\x00\x00\x00\x00\x00\x00\x00\x00\x00\x00\x00\x00\x00\x00\x00\x00\x00\x00\x00\x00\x00\x00\x00\x00\x00\xf0?\x00\x00\x00\x00\x00\x00\x00\x00\x00\x00\x00\x00\x00\x00\x00\x00\x00\x00\x00\x00\x00\x00\x00\x00\x00\x00\x00\x00\x00\x00\xf0?'
p445
tp446
bsg58
g59
sg41
(dp447
L278628448L
g410
ssbsg41
(dp448
L278628280L
g407
ssg58
g59
sbsg74
I2
sg75
g81
sg41
(dp449
L278627944L
g0
(g16
g2
Ntp450
Rp451
(dp452
g14
I1
sg20
g0
(g21
g2
Ntp453
Rp454
(dp455
g14
I1
sg25
g26
(g27
(I0
tp456
g29
tp457
Rp458
(I1
(L2L
tp459
g36
I00
S'\x00\x00\x00\x00\x00\x00\xf0\x7f\x00\x00\x00\x00\x00\x00\xf0\x7f'
p460
tp461
bsg41
(dp462
L278627944L
g451
ssg43
g26
(g27
(I0
tp463
g29
tp464
Rp465
(I1
(L2L
L2L
tp466
g36
I00
S'\x00\x00\x00\x00\x00\x00\x00\x00\x00\x00\x00\x00\x00\x00\x00\x00\x00\x00\x00\x00\x00\x00\xf0?\x00\x00\x00\x00\x00\x00\xf0?'
p467
tp468
bsg50
g26
(g27
(I0
tp469
g29
tp470
Rp471
(I1
(L2L
L2L
tp472
g36
I00
S'\x00\x00\x00\x00\x00\x00\x00\x00\x00\x00\x00\x00\x00\x00\x00\x00\x00\x00\x00\x00\x00\x00\xf0?\x00\x00\x00\x00\x00\x00\xf0?'
p473
tp474
bsg57
I01
sg58
g59
sbsg60
g407
sg50
Nsg41
(dp475
sg58
g59
sbssg58
g59
sbsL278626824L
g0
(g68
g2
Ntp476
Rp477
(dp478
g14
I1
sg72
I2
sg73
g0
(g68
g2
Ntp479
Rp480
(dp481
g14
I1
sg72
I2
sg73
g0
(g79
g2
Ntp482
Rp483
(dp484
g14
I1
sg83
Nsg84
Nsg85
g0
(g21
g2
Ntp485
Rp486
(dp487
g14
I1
sg25
g26
(g27
(I0
tp488
g29
tp489
Rp490
(I1
(L2L
tp491
g36
I00
S'\x00\x00\x00\x00\x00\x00\xf0\x7f\x00\x00\x00\x00\x00\x00\xf0\x7f'
p492
tp493
bsg41
(dp494
L278627440L
g483
ssg43
g26
(g27
(I0
tp495
g29
tp496
Rp497
(I1
(L2L
L2L
tp498
g36
I00
S'\x00\x00\x00\x00\x00\x00\x00\x00\x00\x00\x00\x00\x00\x00\x00\x00\x00\x00\x00\x00\x00\x00\xf0?\x00\x00\x00\x00\x00\x00\xf0?'
p499
tp500
bsg50
g26
(g27
(I0
tp501
g29
tp502
Rp503
(I1
(L2L
L2L
tp504
g36
I00
S'\x00\x00\x00\x00\x00\x00\x00\x00\x00\x00\x00\x00\x00\x00\x00\x00\x00\x00\x00\x00\x00\x00\xf0?\x00\x00\x00\x00\x00\x00\xf0?'
p505
tp506
bsg57
I01
sg58
g59
sbsg41
(dp507
L278626432L
g480
ssg58
g59
sbsg74
I2
sg75
g0
(g139
g2
Ntp508
Rp509
(dp510
g14
I2
sg84
Nsg83
g26
(g27
(I0
tp511
g29
tp512
Rp513
(I1
(L3L
L3L
tp514
g36
I00
S'\x00\x00\x00\x00\x00\x00\xf0?\x00\x00\x00\x00\x00\x00\x00\x00\x00\x00\x00\x00\x00\x00\x00\x00\x00\x00\x00\x00\x00\x00\x00\x00\x00\x00\x00\x00\x00\x00\xf0?\x00\x00\x00\x00\x00\x00\x00\x00\x00\x00\x00\x00\x00\x00\x00\x00\x00\x00\x00\x00\x00\x00\x00\x00\x00\x00\x00\x00\x00\x00\xf0?'
p515
tp516
bsg58
g59
sg41
(dp517
L278626432L
g480
ssbsg41
(dp518
L278626824L
g477
ssg58
g59
sbsg74
I2
sg75
g81
sg41
(dp519
L278626712L
g0
(g16
g2
Ntp520
Rp521
(dp522
g14
I1
sg20
g0
(g21
g2
Ntp523
Rp524
(dp525
g14
I1
sg25
g26
(g27
(I0
tp526
g29
tp527
Rp528
(I1
(L2L
tp529
g36
I00
S'\x00\x00\x00\x00\x00\x00\xf0\x7f\x00\x00\x00\x00\x00\x00\xf0\x7f'
p530
tp531
bsg41
(dp532
L278626712L
g521
ssg43
g26
(g27
(I0
tp533
g29
tp534
Rp535
(I1
(L2L
L2L
tp536
g36
I00
S'\x00\x00\x00\x00\x00\x00\x00\x00\x00\x00\x00\x00\x00\x00\x00\x00\x00\x00\x00\x00\x00\x00\xf0?\x00\x00\x00\x00\x00\x00\xf0?'
p537
tp538
bsg50
g26
(g27
(I0
tp539
g29
tp540
Rp541
(I1
(L2L
L2L
tp542
g36
I00
S'\x00\x00\x00\x00\x00\x00\x00\x00\x00\x00\x00\x00\x00\x00\x00\x00\x00\x00\x00\x00\x00\x00\xf0?\x00\x00\x00\x00\x00\x00\xf0?'
p543
tp544
bsg57
I01
sg58
g59
sbsg60
g477
sg50
Nsg41
(dp545
sg58
g59
sbssg58
g59
sbsL226019088L
g77
sL278629400L
g0
(g68
g2
Ntp546
Rp547
(dp548
g14
I1
sg72
I2
sg73
g0
(g68
g2
Ntp549
Rp550
(dp551
g14
I1
sg72
I2
sg73
g0
(g79
g2
Ntp552
Rp553
(dp554
g14
I1
sg83
Nsg84
Nsg85
g0
(g21
g2
Ntp555
Rp556
(dp557
g14
I1
sg25
g26
(g27
(I0
tp558
g29
tp559
Rp560
(I1
(L2L
tp561
g36
I00
S'\x00\x00\x00\x00\x00\x00\xf0\x7f\x00\x00\x00\x00\x00\x00\xf0\x7f'
p562
tp563
bsg41
(dp564
L278628504L
g553
ssg43
g26
(g27
(I0
tp565
g29
tp566
Rp567
(I1
(L2L
L2L
tp568
g36
I00
S'\x00\x00\x00\x00\x00\x00\x00\x00\x00\x00\x00\x00\x00\x00\x00\x00\x00\x00\x00\x00\x00\x00\xf0?\x00\x00\x00\x00\x00\x00\xf0?'
p569
tp570
bsg50
g26
(g27
(I0
tp571
g29
tp572
Rp573
(I1
(L2L
L2L
tp574
g36
I00
S'\x00\x00\x00\x00\x00\x00\x00\x00\x00\x00\x00\x00\x00\x00\x00\x00\x00\x00\x00\x00\x00\x00\xf0?\x00\x00\x00\x00\x00\x00\xf0?'
p575
tp576
bsg57
I01
sg58
g59
sbsg41
(dp577
L278628616L
g550
ssg58
g59
sbsg74
I2
sg75
g0
(g139
g2
Ntp578
Rp579
(dp580
g14
I2
sg84
Nsg83
g26
(g27
(I0
tp581
g29
tp582
Rp583
(I1
(L3L
L3L
tp584
g36
I00
S'\x00\x00\x00\x00\x00\x00\xf0?\x00\x00\x00\x00\x00\x00\x00\x00\x00\x00\x00\x00\x00\x00\x00\x00\x00\x00\x00\x00\x00\x00\x00\x00\x00\x00\x00\x00\x00\x00\xf0?\x00\x00\x00\x00\x00\x00\x00\x00\x00\x00\x00\x00\x00\x00\x00\x00\x00\x00\x00\x00\x00\x00\x00\x00\x00\x00\x00\x00\x00\x00\xf0?'
p585
tp586
bsg58
g59
sg41
(dp587
L278628616L
g550
ssbsg41
(dp588
L278629400L
g547
ssg58
g59
sbsg74
I2
sg75
g81
sg41
(dp589
L278626768L
g0
(g16
g2
Ntp590
Rp591
(dp592
g14
I1
sg20
g0
(g21
g2
Ntp593
Rp594
(dp595
g14
I1
sg25
g26
(g27
(I0
tp596
g29
tp597
Rp598
(I1
(L2L
tp599
g36
I00
S'\x00\x00\x00\x00\x00\x00\xf0\x7f\x00\x00\x00\x00\x00\x00\xf0\x7f'
p600
tp601
bsg41
(dp602
L278626768L
g591
ssg43
g26
(g27
(I0
tp603
g29
tp604
Rp605
(I1
(L2L
L2L
tp606
g36
I00
S'\x00\x00\x00\x00\x00\x00\x00\x00\x00\x00\x00\x00\x00\x00\x00\x00\x00\x00\x00\x00\x00\x00\xf0?\x00\x00\x00\x00\x00\x00\xf0?'
p607
tp608
bsg50
g26
(g27
(I0
tp609
g29
tp610
Rp611
(I1
(L2L
L2L
tp612
g36
I00
S'\x00\x00\x00\x00\x00\x00\x00\x00\x00\x00\x00\x00\x00\x00\x00\x00\x00\x00\x00\x00\x00\x00\xf0?\x00\x00\x00\x00\x00\x00\xf0?'
p613
tp614
bsg57
I01
sg58
g59
sbsg60
g547
sg50
Nsg41
(dp615
sg58
g59
sbssg58
g59
sbsL278628112L
g315
sL260541856L
g0
(g68
g2
Ntp616
Rp617
(dp618
g14
I1
sg72
I2
sg73
g0
(g68
g2
Ntp619
Rp620
(dp621
g14
I1
sg72
I2
sg73
g0
(g79
g2
Ntp622
Rp623
(dp624
g14
I1
sg83
Nsg84
Nsg85
g0
(g21
g2
Ntp625
Rp626
(dp627
g14
I1
sg25
g26
(g27
(I0
tp628
g29
tp629
Rp630
(I1
(L2L
tp631
g36
I00
S'\x00\x00\x00\x00\x00\x00\xf0\x7f\x00\x00\x00\x00\x00\x00\xf0\x7f'
p632
tp633
bsg41
(dp634
L260539840L
g623
ssg43
g26
(g27
(I0
tp635
g29
tp636
Rp637
(I1
(L2L
L2L
tp638
g36
I00
S'\x00\x00\x00\x00\x00\x00\x00\x00\x00\x00\x00\x00\x00\x00\x00\x00\x00\x00\x00\x00\x00\x00\xf0?\x00\x00\x00\x00\x00\x00\xf0?'
p639
tp640
bsg50
g26
(g27
(I0
tp641
g29
tp642
Rp643
(I1
(L2L
L2L
tp644
g36
I00
S'\x00\x00\x00\x00\x00\x00\x00\x00\x00\x00\x00\x00\x00\x00\x00\x00\x00\x00\x00\x00\x00\x00\xf0?\x00\x00\x00\x00\x00\x00\xf0?'
p645
tp646
bsg57
I01
sg58
g59
sbsg41
(dp647
L260539336L
g620
ssg58
g59
sbsg74
I2
sg75
g0
(g139
g2
Ntp648
Rp649
(dp650
g14
I2
sg84
Nsg83
g26
(g27
(I0
tp651
g29
tp652
Rp653
(I1
(L3L
L3L
tp654
g36
I00
S'\x00\x00\x00\x00\x00\x00\xf0?\x00\x00\x00\x00\x00\x00\x00\x00\x00\x00\x00\x00\x00\x00\x00\x00\x00\x00\x00\x00\x00\x00\x00\x00\x00\x00\x00\x00\x00\x00\xf0?\x00\x00\x00\x00\x00\x00\x00\x00\x00\x00\x00\x00\x00\x00\x00\x00\x00\x00\x00\x00\x00\x00\x00\x00\x00\x00\x00\x00\x00\x00\xf0?'
p655
tp656
bsg58
g59
sg41
(dp657
L260539336L
g620
ssbsg41
(dp658
L260541856L
g617
ssg58
g59
sbsg74
I2
sg75
g81
sg41
(dp659
L260541128L
g0
(g16
g2
Ntp660
Rp661
(dp662
g14
I1
sg20
g0
(g21
g2
Ntp663
Rp664
(dp665
g14
I1
sg25
g26
(g27
(I0
tp666
g29
tp667
Rp668
(I1
(L2L
tp669
g36
I00
S'\x00\x00\x00\x00\x00\x00\xf0\x7f\x00\x00\x00\x00\x00\x00\xf0\x7f'
p670
tp671
bsg41
(dp672
L260541128L
g661
ssg43
g26
(g27
(I0
tp673
g29
tp674
Rp675
(I1
(L2L
L2L
tp676
g36
I00
S'\x00\x00\x00\x00\x00\x00\x00\x00\x00\x00\x00\x00\x00\x00\x00\x00\x00\x00\x00\x00\x00\x00\xf0?\x00\x00\x00\x00\x00\x00\xf0?'
p677
tp678
bsg50
g26
(g27
(I0
tp679
g29
tp680
Rp681
(I1
(L2L
L2L
tp682
g36
I00
S'\x00\x00\x00\x00\x00\x00\x00\x00\x00\x00\x00\x00\x00\x00\x00\x00\x00\x00\x00\x00\x00\x00\xf0?\x00\x00\x00\x00\x00\x00\xf0?'
p683
tp684
bsg57
I01
sg58
g59
sbsg60
g617
sg50
Nsg41
(dp685
sg58
g59
sbssg58
g59
sbsL208772064L
g0
(cmatplotlib.transforms
BlendedAffine2D
p686
g2
Ntp687
Rp688
(dp689
g14
I1
sg83
Nsg165
g0
(cmatplotlib.transforms
IdentityTransform
p690
g2
Ntp691
Rp692
(dp693
g14
I1
sg84
Nsg58
g59
sg41
(dp694
L208772064L
g688
ssbsg166
g81
sg84
Nsg58
g59
sg41
(dp695
sbsL278628392L
g319
sL278629064L
g0
(g68
g2
Ntp696
Rp697
(dp698
g14
I1
sg72
I2
sg73
g0
(g68
g2
Ntp699
Rp700
(dp701
g14
I1
sg72
I2
sg73
g0
(g79
g2
Ntp702
Rp703
(dp704
g14
I1
sg83
Nsg84
Nsg85
g0
(g21
g2
Ntp705
Rp706
(dp707
g14
I1
sg25
g26
(g27
(I0
tp708
g29
tp709
Rp710
(I1
(L2L
tp711
g36
I00
S'\x00\x00\x00\x00\x00\x00\xf0\x7f\x00\x00\x00\x00\x00\x00\xf0\x7f'
p712
tp713
bsg41
(dp714
L278626376L
g703
ssg43
g26
(g27
(I0
tp715
g29
tp716
Rp717
(I1
(L2L
L2L
tp718
g36
I00
S'\x00\x00\x00\x00\x00\x00\x00\x00\x00\x00\x00\x00\x00\x00\x00\x00\x00\x00\x00\x00\x00\x00\xf0?\x00\x00\x00\x00\x00\x00\xf0?'
p719
tp720
bsg50
g26
(g27
(I0
tp721
g29
tp722
Rp723
(I1
(L2L
L2L
tp724
g36
I00
S'\x00\x00\x00\x00\x00\x00\x00\x00\x00\x00\x00\x00\x00\x00\x00\x00\x00\x00\x00\x00\x00\x00\xf0?\x00\x00\x00\x00\x00\x00\xf0?'
p725
tp726
bsg57
I01
sg58
g59
sbsg41
(dp727
L278627776L
g700
ssg58
g59
sbsg74
I2
sg75
g0
(g139
g2
Ntp728
Rp729
(dp730
g14
I2
sg84
Nsg83
g26
(g27
(I0
tp731
g29
tp732
Rp733
(I1
(L3L
L3L
tp734
g36
I00
S'\x00\x00\x00\x00\x00\x00\xf0?\x00\x00\x00\x00\x00\x00\x00\x00\x00\x00\x00\x00\x00\x00\x00\x00\x00\x00\x00\x00\x00\x00\x00\x00\x00\x00\x00\x00\x00\x00\xf0?\x00\x00\x00\x00\x00\x00\x00\x00\x00\x00\x00\x00\x00\x00\x00\x00\x00\x00\x00\x00\x00\x00\x00\x00\x00\x00\x00\x00\x00\x00\xf0?'
p735
tp736
bsg58
g59
sg41
(dp737
L278627776L
g700
ssbsg41
(dp738
L278629064L
g697
ssg58
g59
sbsg74
I2
sg75
g81
sg41
(dp739
L278629176L
g0
(g16
g2
Ntp740
Rp741
(dp742
g14
I1
sg20
g0
(g21
g2
Ntp743
Rp744
(dp745
g14
I1
sg25
g26
(g27
(I0
tp746
g29
tp747
Rp748
(I1
(L2L
tp749
g36
I00
S'\x00\x00\x00\x00\x00\x00\xf0\x7f\x00\x00\x00\x00\x00\x00\xf0\x7f'
p750
tp751
bsg41
(dp752
L278629176L
g741
ssg43
g26
(g27
(I0
tp753
g29
tp754
Rp755
(I1
(L2L
L2L
tp756
g36
I00
S'\x00\x00\x00\x00\x00\x00\x00\x00\x00\x00\x00\x00\x00\x00\x00\x00\x00\x00\x00\x00\x00\x00\xf0?\x00\x00\x00\x00\x00\x00\xf0?'
p757
tp758
bsg50
g26
(g27
(I0
tp759
g29
tp760
Rp761
(I1
(L2L
L2L
tp762
g36
I00
S'\x00\x00\x00\x00\x00\x00\x00\x00\x00\x00\x00\x00\x00\x00\x00\x00\x00\x00\x00\x00\x00\x00\xf0?\x00\x00\x00\x00\x00\x00\xf0?'
p763
tp764
bsg57
I01
sg58
g59
sbsg60
g697
sg50
Nsg41
(dp765
sg58
g59
sbssg58
g59
sbsL226018360L
g242
sL278600336L
g0
(g68
g2
Ntp766
Rp767
(dp768
g14
I1
sg72
I2
sg73
g0
(g68
g2
Ntp769
Rp770
(dp771
g14
I1
sg72
I2
sg73
g0
(g79
g2
Ntp772
Rp773
(dp774
g14
I1
sg83
Nsg84
Nsg85
g0
(g21
g2
Ntp775
Rp776
(dp777
g14
I1
sg25
g26
(g27
(I0
tp778
g29
tp779
Rp780
(I1
(L2L
tp781
g36
I00
S'\x00\x00\x00\x00\x00\x00\xf0\x7f\x00\x00\x00\x00\x00\x00\xf0\x7f'
p782
tp783
bsg41
(dp784
L278599888L
g773
ssg43
g26
(g27
(I0
tp785
g29
tp786
Rp787
(I1
(L2L
L2L
tp788
g36
I00
S'\x00\x00\x00\x00\x00\x00\x00\x00\x00\x00\x00\x00\x00\x00\x00\x00\x00\x00\x00\x00\x00\x00\xf0?\x00\x00\x00\x00\x00\x00\xf0?'
p789
tp790
bsg50
g26
(g27
(I0
tp791
g29
tp792
Rp793
(I1
(L2L
L2L
tp794
g36
I00
S'\x00\x00\x00\x00\x00\x00\x00\x00\x00\x00\x00\x00\x00\x00\x00\x00\x00\x00\x00\x00\x00\x00\xf0?\x00\x00\x00\x00\x00\x00\xf0?'
p795
tp796
bsg57
I01
sg58
g59
sbsg41
(dp797
L278599104L
g770
ssg58
g59
sbsg74
I2
sg75
g0
(g139
g2
Ntp798
Rp799
(dp800
g14
I2
sg84
Nsg83
g26
(g27
(I0
tp801
g29
tp802
Rp803
(I1
(L3L
L3L
tp804
g36
I00
S'\x00\x00\x00\x00\x00\x00\xf0?\x00\x00\x00\x00\x00\x00\x00\x00\x00\x00\x00\x00\x00\x00\x00\x00\x00\x00\x00\x00\x00\x00\x00\x00\x00\x00\x00\x00\x00\x00\xf0?\x00\x00\x00\x00\x00\x00\x00\x00\x00\x00\x00\x00\x00\x00\x00\x00\x00\x00\x00\x00\x00\x00\x00\x00\x00\x00\x00\x00\x00\x00\xf0?'
p805
tp806
bsg58
g59
sg41
(dp807
L278599104L
g770
ssbsg41
(dp808
L278600336L
g767
ssg58
g59
sbsg74
I2
sg75
g81
sg41
(dp809
L278599720L
g0
(g16
g2
Ntp810
Rp811
(dp812
g14
I1
sg20
g0
(g21
g2
Ntp813
Rp814
(dp815
g14
I1
sg25
g26
(g27
(I0
tp816
g29
tp817
Rp818
(I1
(L2L
tp819
g36
I00
S'\x00\x00\x00\x00\x00\x00\xf0\x7f\x00\x00\x00\x00\x00\x00\xf0\x7f'
p820
tp821
bsg41
(dp822
L278599720L
g811
ssg43
g26
(g27
(I0
tp823
g29
tp824
Rp825
(I1
(L2L
L2L
tp826
g36
I00
S'\x00\x00\x00\x00\x00\x00\x00\x00\x00\x00\x00\x00\x00\x00\x00\x00\x00\x00\x00\x00\x00\x00\xf0?\x00\x00\x00\x00\x00\x00\xf0?'
p827
tp828
bsg50
g26
(g27
(I0
tp829
g29
tp830
Rp831
(I1
(L2L
L2L
tp832
g36
I00
S'\x00\x00\x00\x00\x00\x00\x00\x00\x00\x00\x00\x00\x00\x00\x00\x00\x00\x00\x00\x00\x00\x00\xf0?\x00\x00\x00\x00\x00\x00\xf0?'
p833
tp834
bsg57
I01
sg58
g59
sbsg60
g767
sg50
Nsg41
(dp835
sg58
g59
sbssg58
g59
sbsL260538664L
g0
(g68
g2
Ntp836
Rp837
(dp838
g14
I1
sg72
I2
sg73
g0
(g68
g2
Ntp839
Rp840
(dp841
g14
I1
sg72
I2
sg73
g0
(g79
g2
Ntp842
Rp843
(dp844
g14
I1
sg83
Nsg84
Nsg85
g0
(g21
g2
Ntp845
Rp846
(dp847
g14
I1
sg25
g26
(g27
(I0
tp848
g29
tp849
Rp850
(I1
(L2L
tp851
g36
I00
S'\x00\x00\x00\x00\x00\x00\xf0\x7f\x00\x00\x00\x00\x00\x00\xf0\x7f'
p852
tp853
bsg41
(dp854
L260541968L
g843
ssg43
g26
(g27
(I0
tp855
g29
tp856
Rp857
(I1
(L2L
L2L
tp858
g36
I00
S'\x00\x00\x00\x00\x00\x00\x00\x00\x00\x00\x00\x00\x00\x00\x00\x00\x00\x00\x00\x00\x00\x00\xf0?\x00\x00\x00\x00\x00\x00\xf0?'
p859
tp860
bsg50
g26
(g27
(I0
tp861
g29
tp862
Rp863
(I1
(L2L
L2L
tp864
g36
I00
S'\x00\x00\x00\x00\x00\x00\x00\x00\x00\x00\x00\x00\x00\x00\x00\x00\x00\x00\x00\x00\x00\x00\xf0?\x00\x00\x00\x00\x00\x00\xf0?'
p865
tp866
bsg57
I01
sg58
g59
sbsg41
(dp867
L260542080L
g840
ssg58
g59
sbsg74
I2
sg75
g0
(g139
g2
Ntp868
Rp869
(dp870
g14
I2
sg84
Nsg83
g26
(g27
(I0
tp871
g29
tp872
Rp873
(I1
(L3L
L3L
tp874
g36
I00
S'\x00\x00\x00\x00\x00\x00\xf0?\x00\x00\x00\x00\x00\x00\x00\x00\x00\x00\x00\x00\x00\x00\x00\x00\x00\x00\x00\x00\x00\x00\x00\x00\x00\x00\x00\x00\x00\x00\xf0?\x00\x00\x00\x00\x00\x00\x00\x00\x00\x00\x00\x00\x00\x00\x00\x00\x00\x00\x00\x00\x00\x00\x00\x00\x00\x00\x00\x00\x00\x00\xf0?'
p875
tp876
bsg58
g59
sg41
(dp877
L260542080L
g840
ssbsg41
(dp878
L260538664L
g837
ssg58
g59
sbsg74
I2
sg75
g81
sg41
(dp879
L260539672L
g0
(g16
g2
Ntp880
Rp881
(dp882
g14
I1
sg20
g0
(g21
g2
Ntp883
Rp884
(dp885
g14
I1
sg25
g26
(g27
(I0
tp886
g29
tp887
Rp888
(I1
(L2L
tp889
g36
I00
S'\x00\x00\x00\x00\x00\x00\xf0\x7f\x00\x00\x00\x00\x00\x00\xf0\x7f'
p890
tp891
bsg41
(dp892
L260539672L
g881
ssg43
g26
(g27
(I0
tp893
g29
tp894
Rp895
(I1
(L2L
L2L
tp896
g36
I00
S'\x00\x00\x00\x00\x00\x00\x00\x00\x00\x00\x00\x00\x00\x00\x00\x00\x00\x00\x00\x00\x00\x00\xf0?\x00\x00\x00\x00\x00\x00\xf0?'
p897
tp898
bsg50
g26
(g27
(I0
tp899
g29
tp900
Rp901
(I1
(L2L
L2L
tp902
g36
I00
S'\x00\x00\x00\x00\x00\x00\x00\x00\x00\x00\x00\x00\x00\x00\x00\x00\x00\x00\x00\x00\x00\x00\xf0?\x00\x00\x00\x00\x00\x00\xf0?'
p903
tp904
bsg57
I01
sg58
g59
sbsg60
g837
sg50
Nsg41
(dp905
sg58
g59
sbssg58
g59
sbsL260540736L
g0
(g68
g2
Ntp906
Rp907
(dp908
g14
I1
sg72
I2
sg73
g0
(g68
g2
Ntp909
Rp910
(dp911
g14
I1
sg72
I2
sg73
g0
(g79
g2
Ntp912
Rp913
(dp914
g14
I1
sg83
Nsg84
Nsg85
g0
(g21
g2
Ntp915
Rp916
(dp917
g14
I1
sg25
g26
(g27
(I0
tp918
g29
tp919
Rp920
(I1
(L2L
tp921
g36
I00
S'\x00\x00\x00\x00\x00\x00\xf0\x7f\x00\x00\x00\x00\x00\x00\xf0\x7f'
p922
tp923
bsg41
(dp924
L260541744L
g913
ssg43
g26
(g27
(I0
tp925
g29
tp926
Rp927
(I1
(L2L
L2L
tp928
g36
I00
S'\x00\x00\x00\x00\x00\x00\x00\x00\x00\x00\x00\x00\x00\x00\x00\x00\x00\x00\x00\x00\x00\x00\xf0?\x00\x00\x00\x00\x00\x00\xf0?'
p929
tp930
bsg50
g26
(g27
(I0
tp931
g29
tp932
Rp933
(I1
(L2L
L2L
tp934
g36
I00
S'\x00\x00\x00\x00\x00\x00\x00\x00\x00\x00\x00\x00\x00\x00\x00\x00\x00\x00\x00\x00\x00\x00\xf0?\x00\x00\x00\x00\x00\x00\xf0?'
p935
tp936
bsg57
I01
sg58
g59
sbsg41
(dp937
L260541632L
g910
ssg58
g59
sbsg74
I2
sg75
g0
(g139
g2
Ntp938
Rp939
(dp940
g14
I2
sg84
Nsg83
g26
(g27
(I0
tp941
g29
tp942
Rp943
(I1
(L3L
L3L
tp944
g36
I00
S'\x00\x00\x00\x00\x00\x00\xf0?\x00\x00\x00\x00\x00\x00\x00\x00\x00\x00\x00\x00\x00\x00\x00\x00\x00\x00\x00\x00\x00\x00\x00\x00\x00\x00\x00\x00\x00\x00\xf0?\x00\x00\x00\x00\x00\x00\x00\x00\x00\x00\x00\x00\x00\x00\x00\x00\x00\x00\x00\x00\x00\x00\x00\x00\x00\x00\x00\x00\x00\x00\xf0?'
p945
tp946
bsg58
g59
sg41
(dp947
L260541632L
g910
ssbsg41
(dp948
L260540736L
g907
ssg58
g59
sbsg74
I2
sg75
g81
sg41
(dp949
L260540568L
g0
(g16
g2
Ntp950
Rp951
(dp952
g14
I1
sg20
g0
(g21
g2
Ntp953
Rp954
(dp955
g14
I1
sg25
g26
(g27
(I0
tp956
g29
tp957
Rp958
(I1
(L2L
tp959
g36
I00
S'\x00\x00\x00\x00\x00\x00\xf0\x7f\x00\x00\x00\x00\x00\x00\xf0\x7f'
p960
tp961
bsg41
(dp962
L260540568L
g951
ssg43
g26
(g27
(I0
tp963
g29
tp964
Rp965
(I1
(L2L
L2L
tp966
g36
I00
S'\x00\x00\x00\x00\x00\x00\x00\x00\x00\x00\x00\x00\x00\x00\x00\x00\x00\x00\x00\x00\x00\x00\xf0?\x00\x00\x00\x00\x00\x00\xf0?'
p967
tp968
bsg50
g26
(g27
(I0
tp969
g29
tp970
Rp971
(I1
(L2L
L2L
tp972
g36
I00
S'\x00\x00\x00\x00\x00\x00\x00\x00\x00\x00\x00\x00\x00\x00\x00\x00\x00\x00\x00\x00\x00\x00\xf0?\x00\x00\x00\x00\x00\x00\xf0?'
p973
tp974
bsg57
I01
sg58
g59
sbsg60
g907
sg50
Nsg41
(dp975
sg58
g59
sbssg58
g59
sbsL260539168L
g0
(g68
g2
Ntp976
Rp977
(dp978
g14
I1
sg72
I2
sg73
g0
(g68
g2
Ntp979
Rp980
(dp981
g14
I1
sg72
I2
sg73
g0
(g79
g2
Ntp982
Rp983
(dp984
g14
I1
sg83
Nsg84
Nsg85
g0
(g21
g2
Ntp985
Rp986
(dp987
g14
I1
sg25
g26
(g27
(I0
tp988
g29
tp989
Rp990
(I1
(L2L
tp991
g36
I00
S'\x00\x00\x00\x00\x00\x00\xf0\x7f\x00\x00\x00\x00\x00\x00\xf0\x7f'
p992
tp993
bsg41
(dp994
L260538496L
g983
ssg43
g26
(g27
(I0
tp995
g29
tp996
Rp997
(I1
(L2L
L2L
tp998
g36
I00
S'\x00\x00\x00\x00\x00\x00\x00\x00\x00\x00\x00\x00\x00\x00\x00\x00\x00\x00\x00\x00\x00\x00\xf0?\x00\x00\x00\x00\x00\x00\xf0?'
p999
tp1000
bsg50
g26
(g27
(I0
tp1001
g29
tp1002
Rp1003
(I1
(L2L
L2L
tp1004
g36
I00
S'\x00\x00\x00\x00\x00\x00\x00\x00\x00\x00\x00\x00\x00\x00\x00\x00\x00\x00\x00\x00\x00\x00\xf0?\x00\x00\x00\x00\x00\x00\xf0?'
p1005
tp1006
bsg57
I01
sg58
g59
sbsg41
(dp1007
L260539392L
g980
ssg58
g59
sbsg74
I2
sg75
g0
(g139
g2
Ntp1008
Rp1009
(dp1010
g14
I2
sg84
Nsg83
g26
(g27
(I0
tp1011
g29
tp1012
Rp1013
(I1
(L3L
L3L
tp1014
g36
I00
S'\x00\x00\x00\x00\x00\x00\xf0?\x00\x00\x00\x00\x00\x00\x00\x00\x00\x00\x00\x00\x00\x00\x00\x00\x00\x00\x00\x00\x00\x00\x00\x00\x00\x00\x00\x00\x00\x00\xf0?\x00\x00\x00\x00\x00\x00\x00\x00\x00\x00\x00\x00\x00\x00\x00\x00\x00\x00\x00\x00\x00\x00\x00\x00\x00\x00\x00\x00\x00\x00\xf0?'
p1015
tp1016
bsg58
g59
sg41
(dp1017
L260539392L
g980
ssbsg41
(dp1018
L260539168L
g977
ssg58
g59
sbsg74
I2
sg75
g81
sg41
(dp1019
L260539280L
g0
(g16
g2
Ntp1020
Rp1021
(dp1022
g14
I1
sg20
g0
(g21
g2
Ntp1023
Rp1024
(dp1025
g14
I1
sg25
g26
(g27
(I0
tp1026
g29
tp1027
Rp1028
(I1
(L2L
tp1029
g36
I00
S'\x00\x00\x00\x00\x00\x00\xf0\x7f\x00\x00\x00\x00\x00\x00\xf0\x7f'
p1030
tp1031
bsg41
(dp1032
L260539280L
g1021
ssg43
g26
(g27
(I0
tp1033
g29
tp1034
Rp1035
(I1
(L2L
L2L
tp1036
g36
I00
S'\x00\x00\x00\x00\x00\x00\x00\x00\x00\x00\x00\x00\x00\x00\x00\x00\x00\x00\x00\x00\x00\x00\xf0?\x00\x00\x00\x00\x00\x00\xf0?'
p1037
tp1038
bsg50
g26
(g27
(I0
tp1039
g29
tp1040
Rp1041
(I1
(L2L
L2L
tp1042
g36
I00
S'\x00\x00\x00\x00\x00\x00\x00\x00\x00\x00\x00\x00\x00\x00\x00\x00\x00\x00\x00\x00\x00\x00\xf0?\x00\x00\x00\x00\x00\x00\xf0?'
p1043
tp1044
bsg57
I01
sg58
g59
sbsg60
g977
sg50
Nsg41
(dp1045
sg58
g59
sbssg58
g59
sbsL208771784L
g0
(g686
g2
Ntp1046
Rp1047
(dp1048
g14
I1
sg83
Nsg165
g0
(g690
g2
Ntp1049
Rp1050
(dp1051
g14
I1
sg84
Nsg58
g59
sg41
(dp1052
L208771784L
g1047
ssbsg166
g81
sg84
Nsg58
g59
sg41
(dp1053
sbsL278598992L
g0
(g68
g2
Ntp1054
Rp1055
(dp1056
g14
I1
sg72
I2
sg73
g0
(g68
g2
Ntp1057
Rp1058
(dp1059
g14
I1
sg72
I2
sg73
g0
(g79
g2
Ntp1060
Rp1061
(dp1062
g14
I1
sg83
Nsg84
Nsg85
g0
(g21
g2
Ntp1063
Rp1064
(dp1065
g14
I1
sg25
g26
(g27
(I0
tp1066
g29
tp1067
Rp1068
(I1
(L2L
tp1069
g36
I00
S'\x00\x00\x00\x00\x00\x00\xf0\x7f\x00\x00\x00\x00\x00\x00\xf0\x7f'
p1070
tp1071
bsg41
(dp1072
L278599384L
g1061
ssg43
g26
(g27
(I0
tp1073
g29
tp1074
Rp1075
(I1
(L2L
L2L
tp1076
g36
I00
S'\x00\x00\x00\x00\x00\x00\x00\x00\x00\x00\x00\x00\x00\x00\x00\x00\x00\x00\x00\x00\x00\x00\xf0?\x00\x00\x00\x00\x00\x00\xf0?'
p1077
tp1078
bsg50
g26
(g27
(I0
tp1079
g29
tp1080
Rp1081
(I1
(L2L
L2L
tp1082
g36
I00
S'\x00\x00\x00\x00\x00\x00\x00\x00\x00\x00\x00\x00\x00\x00\x00\x00\x00\x00\x00\x00\x00\x00\xf0?\x00\x00\x00\x00\x00\x00\xf0?'
p1083
tp1084
bsg57
I01
sg58
g59
sbsg41
(dp1085
L278600616L
g1058
ssg58
g59
sbsg74
I2
sg75
g0
(g139
g2
Ntp1086
Rp1087
(dp1088
g14
I2
sg84
Nsg83
g26
(g27
(I0
tp1089
g29
tp1090
Rp1091
(I1
(L3L
L3L
tp1092
g36
I00
S'\x00\x00\x00\x00\x00\x00\xf0?\x00\x00\x00\x00\x00\x00\x00\x00\x00\x00\x00\x00\x00\x00\x00\x00\x00\x00\x00\x00\x00\x00\x00\x00\x00\x00\x00\x00\x00\x00\xf0?\x00\x00\x00\x00\x00\x00\x00\x00\x00\x00\x00\x00\x00\x00\x00\x00\x00\x00\x00\x00\x00\x00\x00\x00\x00\x00\x00\x00\x00\x00\xf0?'
p1093
tp1094
bsg58
g59
sg41
(dp1095
L278600616L
g1058
ssbsg41
(dp1096
L278598992L
g1055
ssg58
g59
sbsg74
I2
sg75
g81
sg41
(dp1097
L278600448L
g0
(g16
g2
Ntp1098
Rp1099
(dp1100
g14
I1
sg20
g0
(g21
g2
Ntp1101
Rp1102
(dp1103
g14
I1
sg25
g26
(g27
(I0
tp1104
g29
tp1105
Rp1106
(I1
(L2L
tp1107
g36
I00
S'\x00\x00\x00\x00\x00\x00\xf0\x7f\x00\x00\x00\x00\x00\x00\xf0\x7f'
p1108
tp1109
bsg41
(dp1110
L278600448L
g1099
ssg43
g26
(g27
(I0
tp1111
g29
tp1112
Rp1113
(I1
(L2L
L2L
tp1114
g36
I00
S'\x00\x00\x00\x00\x00\x00\x00\x00\x00\x00\x00\x00\x00\x00\x00\x00\x00\x00\x00\x00\x00\x00\xf0?\x00\x00\x00\x00\x00\x00\xf0?'
p1115
tp1116
bsg50
g26
(g27
(I0
tp1117
g29
tp1118
Rp1119
(I1
(L2L
L2L
tp1120
g36
I00
S'\x00\x00\x00\x00\x00\x00\x00\x00\x00\x00\x00\x00\x00\x00\x00\x00\x00\x00\x00\x00\x00\x00\xf0?\x00\x00\x00\x00\x00\x00\xf0?'
p1121
tp1122
bsg57
I01
sg58
g59
sbsg60
g1055
sg50
Nsg41
(dp1123
sg58
g59
sbssg58
g59
sbsL260540344L
g0
(g68
g2
Ntp1124
Rp1125
(dp1126
g14
I1
sg72
I2
sg73
g0
(g68
g2
Ntp1127
Rp1128
(dp1129
g14
I1
sg72
I2
sg73
g0
(g79
g2
Ntp1130
Rp1131
(dp1132
g14
I1
sg83
Nsg84
Nsg85
g0
(g21
g2
Ntp1133
Rp1134
(dp1135
g14
I1
sg25
g26
(g27
(I0
tp1136
g29
tp1137
Rp1138
(I1
(L2L
tp1139
g36
I00
S'\x00\x00\x00\x00\x00\x00\xf0\x7f\x00\x00\x00\x00\x00\x00\xf0\x7f'
p1140
tp1141
bsg41
(dp1142
L260540064L
g1131
ssg43
g26
(g27
(I0
tp1143
g29
tp1144
Rp1145
(I1
(L2L
L2L
tp1146
g36
I00
S'\x00\x00\x00\x00\x00\x00\x00\x00\x00\x00\x00\x00\x00\x00\x00\x00\x00\x00\x00\x00\x00\x00\xf0?\x00\x00\x00\x00\x00\x00\xf0?'
p1147
tp1148
bsg50
g26
(g27
(I0
tp1149
g29
tp1150
Rp1151
(I1
(L2L
L2L
tp1152
g36
I00
S'\x00\x00\x00\x00\x00\x00\x00\x00\x00\x00\x00\x00\x00\x00\x00\x00\x00\x00\x00\x00\x00\x00\xf0?\x00\x00\x00\x00\x00\x00\xf0?'
p1153
tp1154
bsg57
I01
sg58
g59
sbsg41
(dp1155
L260539728L
g1128
ssg58
g59
sbsg74
I2
sg75
g0
(g139
g2
Ntp1156
Rp1157
(dp1158
g14
I2
sg84
Nsg83
g26
(g27
(I0
tp1159
g29
tp1160
Rp1161
(I1
(L3L
L3L
tp1162
g36
I00
S'\x00\x00\x00\x00\x00\x00\xf0?\x00\x00\x00\x00\x00\x00\x00\x00\x00\x00\x00\x00\x00\x00\x00\x00\x00\x00\x00\x00\x00\x00\x00\x00\x00\x00\x00\x00\x00\x00\xf0?\x00\x00\x00\x00\x00\x00\x00\x00\x00\x00\x00\x00\x00\x00\x00\x00\x00\x00\x00\x00\x00\x00\x00\x00\x00\x00\x00\x00\x00\x00\xf0?'
p1163
tp1164
bsg58
g59
sg41
(dp1165
L260539728L
g1128
ssbsg41
(dp1166
L260540344L
g1125
ssg58
g59
sbsg74
I2
sg75
g81
sg41
(dp1167
L260540288L
g0
(g16
g2
Ntp1168
Rp1169
(dp1170
g14
I1
sg20
g0
(g21
g2
Ntp1171
Rp1172
(dp1173
g14
I1
sg25
g26
(g27
(I0
tp1174
g29
tp1175
Rp1176
(I1
(L2L
tp1177
g36
I00
S'\x00\x00\x00\x00\x00\x00\xf0\x7f\x00\x00\x00\x00\x00\x00\xf0\x7f'
p1178
tp1179
bsg41
(dp1180
L260540288L
g1169
ssg43
g26
(g27
(I0
tp1181
g29
tp1182
Rp1183
(I1
(L2L
L2L
tp1184
g36
I00
S'\x00\x00\x00\x00\x00\x00\x00\x00\x00\x00\x00\x00\x00\x00\x00\x00\x00\x00\x00\x00\x00\x00\xf0?\x00\x00\x00\x00\x00\x00\xf0?'
p1185
tp1186
bsg50
g26
(g27
(I0
tp1187
g29
tp1188
Rp1189
(I1
(L2L
L2L
tp1190
g36
I00
S'\x00\x00\x00\x00\x00\x00\x00\x00\x00\x00\x00\x00\x00\x00\x00\x00\x00\x00\x00\x00\x00\x00\xf0?\x00\x00\x00\x00\x00\x00\xf0?'
p1191
tp1192
bsg57
I01
sg58
g59
sbsg60
g1125
sg50
Nsg41
(dp1193
sg58
g59
sbssg58
g59
sbsL260593592L
g0
(g686
g2
Ntp1194
Rp1195
(dp1196
g14
I1
sg83
Nsg165
g81
sg166
g0
(g690
g2
Ntp1197
Rp1198
(dp1199
g14
I1
sg84
Nsg58
g59
sg41
(dp1200
L260593592L
g1195
ssbsg84
Nsg58
g59
sg41
(dp1201
sbsL278601232L
g0
(g68
g2
Ntp1202
Rp1203
(dp1204
g14
I1
sg72
I2
sg73
g0
(g68
g2
Ntp1205
Rp1206
(dp1207
g14
I1
sg72
I2
sg73
g0
(g79
g2
Ntp1208
Rp1209
(dp1210
g14
I1
sg83
Nsg84
Nsg85
g0
(g21
g2
Ntp1211
Rp1212
(dp1213
g14
I1
sg25
g26
(g27
(I0
tp1214
g29
tp1215
Rp1216
(I1
(L2L
tp1217
g36
I00
S'\x00\x00\x00\x00\x00\x00\xf0\x7f\x00\x00\x00\x00\x00\x00\xf0\x7f'
p1218
tp1219
bsg41
(dp1220
L278601120L
g1209
ssg43
g26
(g27
(I0
tp1221
g29
tp1222
Rp1223
(I1
(L2L
L2L
tp1224
g36
I00
S'\x00\x00\x00\x00\x00\x00\x00\x00\x00\x00\x00\x00\x00\x00\x00\x00\x00\x00\x00\x00\x00\x00\xf0?\x00\x00\x00\x00\x00\x00\xf0?'
p1225
tp1226
bsg50
g26
(g27
(I0
tp1227
g29
tp1228
Rp1229
(I1
(L2L
L2L
tp1230
g36
I00
S'\x00\x00\x00\x00\x00\x00\x00\x00\x00\x00\x00\x00\x00\x00\x00\x00\x00\x00\x00\x00\x00\x00\xf0?\x00\x00\x00\x00\x00\x00\xf0?'
p1231
tp1232
bsg57
I01
sg58
g59
sbsg41
(dp1233
L278598040L
g1206
ssg58
g59
sbsg74
I2
sg75
g0
(g139
g2
Ntp1234
Rp1235
(dp1236
g14
I2
sg84
Nsg83
g26
(g27
(I0
tp1237
g29
tp1238
Rp1239
(I1
(L3L
L3L
tp1240
g36
I00
S'\x00\x00\x00\x00\x00\x00\xf0?\x00\x00\x00\x00\x00\x00\x00\x00\x00\x00\x00\x00\x00\x00\x00\x00\x00\x00\x00\x00\x00\x00\x00\x00\x00\x00\x00\x00\x00\x00\xf0?\x00\x00\x00\x00\x00\x00\x00\x00\x00\x00\x00\x00\x00\x00\x00\x00\x00\x00\x00\x00\x00\x00\x00\x00\x00\x00\x00\x00\x00\x00\xf0?'
p1241
tp1242
bsg58
g59
sg41
(dp1243
L278598040L
g1206
ssbsg41
(dp1244
L278601232L
g1203
ssg58
g59
sbsg74
I2
sg75
g81
sg41
(dp1245
L278601680L
g0
(g16
g2
Ntp1246
Rp1247
(dp1248
g14
I1
sg20
g0
(g21
g2
Ntp1249
Rp1250
(dp1251
g14
I1
sg25
g26
(g27
(I0
tp1252
g29
tp1253
Rp1254
(I1
(L2L
tp1255
g36
I00
S'\x00\x00\x00\x00\x00\x00\xf0\x7f\x00\x00\x00\x00\x00\x00\xf0\x7f'
p1256
tp1257
bsg41
(dp1258
L278601680L
g1247
ssg43
g26
(g27
(I0
tp1259
g29
tp1260
Rp1261
(I1
(L2L
L2L
tp1262
g36
I00
S'\x00\x00\x00\x00\x00\x00\x00\x00\x00\x00\x00\x00\x00\x00\x00\x00\x00\x00\x00\x00\x00\x00\xf0?\x00\x00\x00\x00\x00\x00\xf0?'
p1263
tp1264
bsg50
g26
(g27
(I0
tp1265
g29
tp1266
Rp1267
(I1
(L2L
L2L
tp1268
g36
I00
S'\x00\x00\x00\x00\x00\x00\x00\x00\x00\x00\x00\x00\x00\x00\x00\x00\x00\x00\x00\x00\x00\x00\xf0?\x00\x00\x00\x00\x00\x00\xf0?'
p1269
tp1270
bsg57
I01
sg58
g59
sbsg60
g1203
sg50
Nsg41
(dp1271
sg58
g59
sbssg58
g59
sbsL226019928L
g163
sL260428576L
g0
(g686
g2
Ntp1272
Rp1273
(dp1274
g14
I1
sg83
Nsg165
g0
(g690
g2
Ntp1275
Rp1276
(dp1277
g14
I1
sg84
Nsg58
g59
sg41
(dp1278
L260428576L
g1273
ssbsg166
g81
sg84
Nsg58
g59
sg41
(dp1279
sbsL260541408L
g0
(g68
g2
Ntp1280
Rp1281
(dp1282
g14
I1
sg72
I2
sg73
g0
(g68
g2
Ntp1283
Rp1284
(dp1285
g14
I1
sg72
I2
sg73
g0
(g79
g2
Ntp1286
Rp1287
(dp1288
g14
I1
sg83
Nsg84
Nsg85
g0
(g21
g2
Ntp1289
Rp1290
(dp1291
g14
I1
sg25
g26
(g27
(I0
tp1292
g29
tp1293
Rp1294
(I1
(L2L
tp1295
g36
I00
S'\x00\x00\x00\x00\x00\x00\xf0\x7f\x00\x00\x00\x00\x00\x00\xf0\x7f'
p1296
tp1297
bsg41
(dp1298
L260539112L
g1287
ssg43
g26
(g27
(I0
tp1299
g29
tp1300
Rp1301
(I1
(L2L
L2L
tp1302
g36
I00
S'\x00\x00\x00\x00\x00\x00\x00\x00\x00\x00\x00\x00\x00\x00\x00\x00\x00\x00\x00\x00\x00\x00\xf0?\x00\x00\x00\x00\x00\x00\xf0?'
p1303
tp1304
bsg50
g26
(g27
(I0
tp1305
g29
tp1306
Rp1307
(I1
(L2L
L2L
tp1308
g36
I00
S'\x00\x00\x00\x00\x00\x00\x00\x00\x00\x00\x00\x00\x00\x00\x00\x00\x00\x00\x00\x00\x00\x00\xf0?\x00\x00\x00\x00\x00\x00\xf0?'
p1309
tp1310
bsg57
I01
sg58
g59
sbsg41
(dp1311
L260542304L
g1284
ssg58
g59
sbsg74
I2
sg75
g0
(g139
g2
Ntp1312
Rp1313
(dp1314
g14
I2
sg84
Nsg83
g26
(g27
(I0
tp1315
g29
tp1316
Rp1317
(I1
(L3L
L3L
tp1318
g36
I00
S'\x00\x00\x00\x00\x00\x00\xf0?\x00\x00\x00\x00\x00\x00\x00\x00\x00\x00\x00\x00\x00\x00\x00\x00\x00\x00\x00\x00\x00\x00\x00\x00\x00\x00\x00\x00\x00\x00\xf0?\x00\x00\x00\x00\x00\x00\x00\x00\x00\x00\x00\x00\x00\x00\x00\x00\x00\x00\x00\x00\x00\x00\x00\x00\x00\x00\x00\x00\x00\x00\xf0?'
p1319
tp1320
bsg58
g59
sg41
(dp1321
L260542304L
g1284
ssbsg41
(dp1322
L260541408L
g1281
ssg58
g59
sbsg74
I2
sg75
g81
sg41
(dp1323
L260542136L
g0
(g16
g2
Ntp1324
Rp1325
(dp1326
g14
I1
sg20
g0
(g21
g2
Ntp1327
Rp1328
(dp1329
g14
I1
sg25
g26
(g27
(I0
tp1330
g29
tp1331
Rp1332
(I1
(L2L
tp1333
g36
I00
S'\x00\x00\x00\x00\x00\x00\xf0\x7f\x00\x00\x00\x00\x00\x00\xf0\x7f'
p1334
tp1335
bsg41
(dp1336
L260542136L
g1325
ssg43
g26
(g27
(I0
tp1337
g29
tp1338
Rp1339
(I1
(L2L
L2L
tp1340
g36
I00
S'\x00\x00\x00\x00\x00\x00\x00\x00\x00\x00\x00\x00\x00\x00\x00\x00\x00\x00\x00\x00\x00\x00\xf0?\x00\x00\x00\x00\x00\x00\xf0?'
p1341
tp1342
bsg50
g26
(g27
(I0
tp1343
g29
tp1344
Rp1345
(I1
(L2L
L2L
tp1346
g36
I00
S'\x00\x00\x00\x00\x00\x00\x00\x00\x00\x00\x00\x00\x00\x00\x00\x00\x00\x00\x00\x00\x00\x00\xf0?\x00\x00\x00\x00\x00\x00\xf0?'
p1347
tp1348
bsg57
I01
sg58
g59
sbsg60
g1281
sg50
Nsg41
(dp1349
sg58
g59
sbssg58
g59
sbsL260541520L
g0
(g68
g2
Ntp1350
Rp1351
(dp1352
g14
I1
sg72
I2
sg73
g0
(g68
g2
Ntp1353
Rp1354
(dp1355
g14
I1
sg72
I2
sg73
g0
(g79
g2
Ntp1356
Rp1357
(dp1358
g14
I1
sg83
Nsg84
Nsg85
g0
(g21
g2
Ntp1359
Rp1360
(dp1361
g14
I1
sg25
g26
(g27
(I0
tp1362
g29
tp1363
Rp1364
(I1
(L2L
tp1365
g36
I00
S'\x00\x00\x00\x00\x00\x00\xf0\x7f\x00\x00\x00\x00\x00\x00\xf0\x7f'
p1366
tp1367
bsg41
(dp1368
L260540512L
g1357
ssg43
g26
(g27
(I0
tp1369
g29
tp1370
Rp1371
(I1
(L2L
L2L
tp1372
g36
I00
S'\x00\x00\x00\x00\x00\x00\x00\x00\x00\x00\x00\x00\x00\x00\x00\x00\x00\x00\x00\x00\x00\x00\xf0?\x00\x00\x00\x00\x00\x00\xf0?'
p1373
tp1374
bsg50
g26
(g27
(I0
tp1375
g29
tp1376
Rp1377
(I1
(L2L
L2L
tp1378
g36
I00
S'\x00\x00\x00\x00\x00\x00\x00\x00\x00\x00\x00\x00\x00\x00\x00\x00\x00\x00\x00\x00\x00\x00\xf0?\x00\x00\x00\x00\x00\x00\xf0?'
p1379
tp1380
bsg57
I01
sg58
g59
sbsg41
(dp1381
L260540624L
g1354
ssg58
g59
sbsg74
I2
sg75
g0
(g139
g2
Ntp1382
Rp1383
(dp1384
g14
I2
sg84
Nsg83
g26
(g27
(I0
tp1385
g29
tp1386
Rp1387
(I1
(L3L
L3L
tp1388
g36
I00
S'\x00\x00\x00\x00\x00\x00\xf0?\x00\x00\x00\x00\x00\x00\x00\x00\x00\x00\x00\x00\x00\x00\x00\x00\x00\x00\x00\x00\x00\x00\x00\x00\x00\x00\x00\x00\x00\x00\xf0?\x00\x00\x00\x00\x00\x00\x00\x00\x00\x00\x00\x00\x00\x00\x00\x00\x00\x00\x00\x00\x00\x00\x00\x00\x00\x00\x00\x00\x00\x00\xf0?'
p1389
tp1390
bsg58
g59
sg41
(dp1391
L260540624L
g1354
ssbsg41
(dp1392
L260541520L
g1351
ssg58
g59
sbsg74
I2
sg75
g81
sg41
(dp1393
L260541296L
g0
(g16
g2
Ntp1394
Rp1395
(dp1396
g14
I1
sg20
g0
(g21
g2
Ntp1397
Rp1398
(dp1399
g14
I1
sg25
g26
(g27
(I0
tp1400
g29
tp1401
Rp1402
(I1
(L2L
tp1403
g36
I00
S'\x00\x00\x00\x00\x00\x00\xf0\x7f\x00\x00\x00\x00\x00\x00\xf0\x7f'
p1404
tp1405
bsg41
(dp1406
L260541296L
g1395
ssg43
g26
(g27
(I0
tp1407
g29
tp1408
Rp1409
(I1
(L2L
L2L
tp1410
g36
I00
S'\x00\x00\x00\x00\x00\x00\x00\x00\x00\x00\x00\x00\x00\x00\x00\x00\x00\x00\x00\x00\x00\x00\xf0?\x00\x00\x00\x00\x00\x00\xf0?'
p1411
tp1412
bsg50
g26
(g27
(I0
tp1413
g29
tp1414
Rp1415
(I1
(L2L
L2L
tp1416
g36
I00
S'\x00\x00\x00\x00\x00\x00\x00\x00\x00\x00\x00\x00\x00\x00\x00\x00\x00\x00\x00\x00\x00\x00\xf0?\x00\x00\x00\x00\x00\x00\xf0?'
p1417
tp1418
bsg57
I01
sg58
g59
sbsg60
g1351
sg50
Nsg41
(dp1419
sg58
g59
sbssg58
g59
sbsL278600168L
g0
(g68
g2
Ntp1420
Rp1421
(dp1422
g14
I1
sg72
I2
sg73
g0
(g68
g2
Ntp1423
Rp1424
(dp1425
g14
I1
sg72
I2
sg73
g0
(g79
g2
Ntp1426
Rp1427
(dp1428
g14
I1
sg83
Nsg84
Nsg85
g0
(g21
g2
Ntp1429
Rp1430
(dp1431
g14
I1
sg25
g26
(g27
(I0
tp1432
g29
tp1433
Rp1434
(I1
(L2L
tp1435
g36
I00
S'\x00\x00\x00\x00\x00\x00\xf0\x7f\x00\x00\x00\x00\x00\x00\xf0\x7f'
p1436
tp1437
bsg41
(dp1438
L278598376L
g1427
ssg43
g26
(g27
(I0
tp1439
g29
tp1440
Rp1441
(I1
(L2L
L2L
tp1442
g36
I00
S'\x00\x00\x00\x00\x00\x00\x00\x00\x00\x00\x00\x00\x00\x00\x00\x00\x00\x00\x00\x00\x00\x00\xf0?\x00\x00\x00\x00\x00\x00\xf0?'
p1443
tp1444
bsg50
g26
(g27
(I0
tp1445
g29
tp1446
Rp1447
(I1
(L2L
L2L
tp1448
g36
I00
S'\x00\x00\x00\x00\x00\x00\x00\x00\x00\x00\x00\x00\x00\x00\x00\x00\x00\x00\x00\x00\x00\x00\xf0?\x00\x00\x00\x00\x00\x00\xf0?'
p1449
tp1450
bsg57
I01
sg58
g59
sbsg41
(dp1451
L278601064L
g1424
ssg58
g59
sbsg74
I2
sg75
g0
(g139
g2
Ntp1452
Rp1453
(dp1454
g14
I2
sg84
Nsg83
g26
(g27
(I0
tp1455
g29
tp1456
Rp1457
(I1
(L3L
L3L
tp1458
g36
I00
S'\x00\x00\x00\x00\x00\x00\xf0?\x00\x00\x00\x00\x00\x00\x00\x00\x00\x00\x00\x00\x00\x00\x00\x00\x00\x00\x00\x00\x00\x00\x00\x00\x00\x00\x00\x00\x00\x00\xf0?\x00\x00\x00\x00\x00\x00\x00\x00\x00\x00\x00\x00\x00\x00\x00\x00\x00\x00\x00\x00\x00\x00\x00\x00\x00\x00\x00\x00\x00\x00\xf0?'
p1459
tp1460
bsg58
g59
sg41
(dp1461
L278601064L
g1424
ssbsg41
(dp1462
L278600168L
g1421
ssg58
g59
sbsg74
I2
sg75
g81
sg41
(dp1463
L278599272L
g0
(g16
g2
Ntp1464
Rp1465
(dp1466
g14
I1
sg20
g0
(g21
g2
Ntp1467
Rp1468
(dp1469
g14
I1
sg25
g26
(g27
(I0
tp1470
g29
tp1471
Rp1472
(I1
(L2L
tp1473
g36
I00
S'\x00\x00\x00\x00\x00\x00\xf0\x7f\x00\x00\x00\x00\x00\x00\xf0\x7f'
p1474
tp1475
bsg41
(dp1476
L278599272L
g1465
ssg43
g26
(g27
(I0
tp1477
g29
tp1478
Rp1479
(I1
(L2L
L2L
tp1480
g36
I00
S'\x00\x00\x00\x00\x00\x00\x00\x00\x00\x00\x00\x00\x00\x00\x00\x00\x00\x00\x00\x00\x00\x00\xf0?\x00\x00\x00\x00\x00\x00\xf0?'
p1481
tp1482
bsg50
g26
(g27
(I0
tp1483
g29
tp1484
Rp1485
(I1
(L2L
L2L
tp1486
g36
I00
S'\x00\x00\x00\x00\x00\x00\x00\x00\x00\x00\x00\x00\x00\x00\x00\x00\x00\x00\x00\x00\x00\x00\xf0?\x00\x00\x00\x00\x00\x00\xf0?'
p1487
tp1488
bsg57
I01
sg58
g59
sbsg60
g1421
sg50
Nsg41
(dp1489
sg58
g59
sbssg58
g59
sbsL260539616L
g0
(g68
g2
Ntp1490
Rp1491
(dp1492
g14
I1
sg72
I2
sg73
g0
(g68
g2
Ntp1493
Rp1494
(dp1495
g14
I1
sg72
I2
sg73
g0
(g79
g2
Ntp1496
Rp1497
(dp1498
g14
I1
sg83
Nsg84
Nsg85
g0
(g21
g2
Ntp1499
Rp1500
(dp1501
g14
I1
sg25
g26
(g27
(I0
tp1502
g29
tp1503
Rp1504
(I1
(L2L
tp1505
g36
I00
S'\x00\x00\x00\x00\x00\x00\xf0\x7f\x00\x00\x00\x00\x00\x00\xf0\x7f'
p1506
tp1507
bsg41
(dp1508
L260538832L
g1497
ssg43
g26
(g27
(I0
tp1509
g29
tp1510
Rp1511
(I1
(L2L
L2L
tp1512
g36
I00
S'\x00\x00\x00\x00\x00\x00\x00\x00\x00\x00\x00\x00\x00\x00\x00\x00\x00\x00\x00\x00\x00\x00\xf0?\x00\x00\x00\x00\x00\x00\xf0?'
p1513
tp1514
bsg50
g26
(g27
(I0
tp1515
g29
tp1516
Rp1517
(I1
(L2L
L2L
tp1518
g36
I00
S'\x00\x00\x00\x00\x00\x00\x00\x00\x00\x00\x00\x00\x00\x00\x00\x00\x00\x00\x00\x00\x00\x00\xf0?\x00\x00\x00\x00\x00\x00\xf0?'
p1519
tp1520
bsg57
I01
sg58
g59
sbsg41
(dp1521
L260539224L
g1494
ssg58
g59
sbsg74
I2
sg75
g0
(g139
g2
Ntp1522
Rp1523
(dp1524
g14
I2
sg84
Nsg83
g26
(g27
(I0
tp1525
g29
tp1526
Rp1527
(I1
(L3L
L3L
tp1528
g36
I00
S'\x00\x00\x00\x00\x00\x00\xf0?\x00\x00\x00\x00\x00\x00\x00\x00\x00\x00\x00\x00\x00\x00\x00\x00\x00\x00\x00\x00\x00\x00\x00\x00\x00\x00\x00\x00\x00\x00\xf0?\x00\x00\x00\x00\x00\x00\x00\x00\x00\x00\x00\x00\x00\x00\x00\x00\x00\x00\x00\x00\x00\x00\x00\x00\x00\x00\x00\x00\x00\x00\xf0?'
p1529
tp1530
bsg58
g59
sg41
(dp1531
L260539224L
g1494
ssbsg41
(dp1532
L260539616L
g1491
ssg58
g59
sbsg74
I2
sg75
g81
sg41
(dp1533
L260539504L
g0
(g16
g2
Ntp1534
Rp1535
(dp1536
g14
I1
sg20
g0
(g21
g2
Ntp1537
Rp1538
(dp1539
g14
I1
sg25
g26
(g27
(I0
tp1540
g29
tp1541
Rp1542
(I1
(L2L
tp1543
g36
I00
S'\x00\x00\x00\x00\x00\x00\xf0\x7f\x00\x00\x00\x00\x00\x00\xf0\x7f'
p1544
tp1545
bsg41
(dp1546
L260539504L
g1535
ssg43
g26
(g27
(I0
tp1547
g29
tp1548
Rp1549
(I1
(L2L
L2L
tp1550
g36
I00
S'\x00\x00\x00\x00\x00\x00\x00\x00\x00\x00\x00\x00\x00\x00\x00\x00\x00\x00\x00\x00\x00\x00\xf0?\x00\x00\x00\x00\x00\x00\xf0?'
p1551
tp1552
bsg50
g26
(g27
(I0
tp1553
g29
tp1554
Rp1555
(I1
(L2L
L2L
tp1556
g36
I00
S'\x00\x00\x00\x00\x00\x00\x00\x00\x00\x00\x00\x00\x00\x00\x00\x00\x00\x00\x00\x00\x00\x00\xf0?\x00\x00\x00\x00\x00\x00\xf0?'
p1557
tp1558
bsg57
I01
sg58
g59
sbsg60
g1491
sg50
Nsg41
(dp1559
sg58
g59
sbssg58
g59
sbsL260542192L
g0
(g68
g2
Ntp1560
Rp1561
(dp1562
g14
I1
sg72
I2
sg73
g0
(g68
g2
Ntp1563
Rp1564
(dp1565
g14
I1
sg72
I2
sg73
g0
(g79
g2
Ntp1566
Rp1567
(dp1568
g14
I1
sg83
Nsg84
Nsg85
g0
(g21
g2
Ntp1569
Rp1570
(dp1571
g14
I1
sg25
g26
(g27
(I0
tp1572
g29
tp1573
Rp1574
(I1
(L2L
tp1575
g36
I00
S'\x00\x00\x00\x00\x00\x00\xf0\x7f\x00\x00\x00\x00\x00\x00\xf0\x7f'
p1576
tp1577
bsg41
(dp1578
L260539784L
g1567
ssg43
g26
(g27
(I0
tp1579
g29
tp1580
Rp1581
(I1
(L2L
L2L
tp1582
g36
I00
S'\x00\x00\x00\x00\x00\x00\x00\x00\x00\x00\x00\x00\x00\x00\x00\x00\x00\x00\x00\x00\x00\x00\xf0?\x00\x00\x00\x00\x00\x00\xf0?'
p1583
tp1584
bsg50
g26
(g27
(I0
tp1585
g29
tp1586
Rp1587
(I1
(L2L
L2L
tp1588
g36
I00
S'\x00\x00\x00\x00\x00\x00\x00\x00\x00\x00\x00\x00\x00\x00\x00\x00\x00\x00\x00\x00\x00\x00\xf0?\x00\x00\x00\x00\x00\x00\xf0?'
p1589
tp1590
bsg57
I01
sg58
g59
sbsg41
(dp1591
L260539056L
g1564
ssg58
g59
sbsg74
I2
sg75
g0
(g139
g2
Ntp1592
Rp1593
(dp1594
g14
I2
sg84
Nsg83
g26
(g27
(I0
tp1595
g29
tp1596
Rp1597
(I1
(L3L
L3L
tp1598
g36
I00
S'\x00\x00\x00\x00\x00\x00\xf0?\x00\x00\x00\x00\x00\x00\x00\x00\x00\x00\x00\x00\x00\x00\x00\x00\x00\x00\x00\x00\x00\x00\x00\x00\x00\x00\x00\x00\x00\x00\xf0?\x00\x00\x00\x00\x00\x00\x00\x00\x00\x00\x00\x00\x00\x00\x00\x00\x00\x00\x00\x00\x00\x00\x00\x00\x00\x00\x00\x00\x00\x00\xf0?'
p1599
tp1600
bsg58
g59
sg41
(dp1601
L260539056L
g1564
ssbsg41
(dp1602
L260542192L
g1561
ssg58
g59
sbsg74
I2
sg75
g81
sg41
(dp1603
L260540960L
g0
(g16
g2
Ntp1604
Rp1605
(dp1606
g14
I1
sg20
g0
(g21
g2
Ntp1607
Rp1608
(dp1609
g14
I1
sg25
g26
(g27
(I0
tp1610
g29
tp1611
Rp1612
(I1
(L2L
tp1613
g36
I00
S'\x00\x00\x00\x00\x00\x00\xf0\x7f\x00\x00\x00\x00\x00\x00\xf0\x7f'
p1614
tp1615
bsg41
(dp1616
L260540960L
g1605
ssg43
g26
(g27
(I0
tp1617
g29
tp1618
Rp1619
(I1
(L2L
L2L
tp1620
g36
I00
S'\x00\x00\x00\x00\x00\x00\x00\x00\x00\x00\x00\x00\x00\x00\x00\x00\x00\x00\x00\x00\x00\x00\xf0?\x00\x00\x00\x00\x00\x00\xf0?'
p1621
tp1622
bsg50
g26
(g27
(I0
tp1623
g29
tp1624
Rp1625
(I1
(L2L
L2L
tp1626
g36
I00
S'\x00\x00\x00\x00\x00\x00\x00\x00\x00\x00\x00\x00\x00\x00\x00\x00\x00\x00\x00\x00\x00\x00\xf0?\x00\x00\x00\x00\x00\x00\xf0?'
p1627
tp1628
bsg57
I01
sg58
g59
sbsg60
g1561
sg50
Nsg41
(dp1629
sg58
g59
sbssg58
g59
sbsL260540904L
g0
(g68
g2
Ntp1630
Rp1631
(dp1632
g14
I1
sg72
I2
sg73
g0
(g68
g2
Ntp1633
Rp1634
(dp1635
g14
I1
sg72
I2
sg73
g0
(g79
g2
Ntp1636
Rp1637
(dp1638
g14
I1
sg83
Nsg84
Nsg85
g0
(g21
g2
Ntp1639
Rp1640
(dp1641
g14
I1
sg25
g26
(g27
(I0
tp1642
g29
tp1643
Rp1644
(I1
(L2L
tp1645
g36
I00
S'\x00\x00\x00\x00\x00\x00\xf0\x7f\x00\x00\x00\x00\x00\x00\xf0\x7f'
p1646
tp1647
bsg41
(dp1648
L260538888L
g1637
ssg43
g26
(g27
(I0
tp1649
g29
tp1650
Rp1651
(I1
(L2L
L2L
tp1652
g36
I00
S'\x00\x00\x00\x00\x00\x00\x00\x00\x00\x00\x00\x00\x00\x00\x00\x00\x00\x00\x00\x00\x00\x00\xf0?\x00\x00\x00\x00\x00\x00\xf0?'
p1653
tp1654
bsg50
g26
(g27
(I0
tp1655
g29
tp1656
Rp1657
(I1
(L2L
L2L
tp1658
g36
I00
S'\x00\x00\x00\x00\x00\x00\x00\x00\x00\x00\x00\x00\x00\x00\x00\x00\x00\x00\x00\x00\x00\x00\xf0?\x00\x00\x00\x00\x00\x00\xf0?'
p1659
tp1660
bsg57
I01
sg58
g59
sbsg41
(dp1661
L260538944L
g1634
ssg58
g59
sbsg74
I2
sg75
g0
(g139
g2
Ntp1662
Rp1663
(dp1664
g14
I2
sg84
Nsg83
g26
(g27
(I0
tp1665
g29
tp1666
Rp1667
(I1
(L3L
L3L
tp1668
g36
I00
S'\x00\x00\x00\x00\x00\x00\xf0?\x00\x00\x00\x00\x00\x00\x00\x00\x00\x00\x00\x00\x00\x00\x00\x00\x00\x00\x00\x00\x00\x00\x00\x00\x00\x00\x00\x00\x00\x00\xf0?\x00\x00\x00\x00\x00\x00\x00\x00\x00\x00\x00\x00\x00\x00\x00\x00\x00\x00\x00\x00\x00\x00\x00\x00\x00\x00\x00\x00\x00\x00\xf0?'
p1669
tp1670
bsg58
g59
sg41
(dp1671
L260538944L
g1634
ssbsg41
(dp1672
L260540904L
g1631
ssg58
g59
sbsg74
I2
sg75
g81
sg41
(dp1673
L260538776L
g0
(g16
g2
Ntp1674
Rp1675
(dp1676
g14
I1
sg20
g0
(g21
g2
Ntp1677
Rp1678
(dp1679
g14
I1
sg25
g26
(g27
(I0
tp1680
g29
tp1681
Rp1682
(I1
(L2L
tp1683
g36
I00
S'\x00\x00\x00\x00\x00\x00\xf0\x7f\x00\x00\x00\x00\x00\x00\xf0\x7f'
p1684
tp1685
bsg41
(dp1686
L260538776L
g1675
ssg43
g26
(g27
(I0
tp1687
g29
tp1688
Rp1689
(I1
(L2L
L2L
tp1690
g36
I00
S'\x00\x00\x00\x00\x00\x00\x00\x00\x00\x00\x00\x00\x00\x00\x00\x00\x00\x00\x00\x00\x00\x00\xf0?\x00\x00\x00\x00\x00\x00\xf0?'
p1691
tp1692
bsg50
g26
(g27
(I0
tp1693
g29
tp1694
Rp1695
(I1
(L2L
L2L
tp1696
g36
I00
S'\x00\x00\x00\x00\x00\x00\x00\x00\x00\x00\x00\x00\x00\x00\x00\x00\x00\x00\x00\x00\x00\x00\xf0?\x00\x00\x00\x00\x00\x00\xf0?'
p1697
tp1698
bsg57
I01
sg58
g59
sbsg60
g1631
sg50
Nsg41
(dp1699
sg58
g59
sbssg58
g59
sbsL278628728L
g323
ssg58
g59
sbsg41
(dp1700
L226017464L
g70
ssg58
g59
sbsg41
(dp1701
L226018360L
g242
sL226019928L
g163
ssg58
g59
sbssVinput_dims
p1702
I2
sVchild
p1703
g0
(g686
g2
Ntp1704
Rp1705
(dp1706
g14
I0
sg83
g26
(g27
(I0
tp1707
g29
tp1708
Rp1709
(I1
(L3L
L3L
tp1710
g36
I00
S'\x00\x00\x00\x00\x00\x00\xf0?\x00\x00\x00\x00\x00\x00\x00\x00\x00\x00\x00\x00\x00\x00\x00\x00\x00\x00\x00\x00\x00\x00\x00\x00\x00\x00\x00\x00\x00\x00\xf0?\x00\x00\x00\x00\x00\x00\x00\x00\x00\x00\x00\x00\x00\x00\x00\x00\x00\x00\x00\x00\x00\x00\x00\x00\x00\x00\x00\x00\x00\x00\xf0?'
p1711
tp1712
bsg165
g0
(g690
g2
Ntp1713
Rp1714
(dp1715
g14
I1
sg84
Nsg58
g59
sg41
(dp1716
L260429976L
g1705
ssbsg166
g0
(g690
g2
Ntp1717
Rp1718
(dp1719
g14
I1
sg84
Nsg58
g59
sg41
(dp1720
L260429976L
g1705
ssbsg84
Nsg58
g59
sg41
(dp1721
L226018696L
g63
ssbsbsg50
Nsg41
(dp1722
L226018920L
g12
ssg58
g59
sbsg83
Nsg84
Nsg58
g59
sg41
(dp1723
L226019088L
g77
ssbsS'_get_patches_for_fill'
p1724
g0
(cmatplotlib.axes._base
_process_plot_var_args
p1725
g2
Ntp1726
Rp1727
(dp1728
Vaxes
p1729
g7
sVcommand
p1730
Vfill
p1731
sbsS'_xcid'
p1732
I1
sS'_label'
p1733
V
p1734
sS'legend_'
p1735
NsS'texts'
p1736
(lp1737
sS'_frameon'
p1738
I01
sS'_autoscaleYon'
p1739
I01
sS'_hold'
p1740
I01
sS'artists'
p1741
(lp1742
sS'_clipon'
p1743
I01
sS'tables'
p1744
(lp1745
sS'patches'
p1746
(lp1747
sS'title'
p1748
g0
(cmatplotlib.text
Text
p1749
g2
Ntp1750
Rp1751
(dp1752
g1733
g59
sS'_visible'
p1753
I01
sS'figure'
p1754
g0
(cmatplotlib.figure
Figure
p1755
g2
Ntp1756
Rp1757
(dp1758
g1733
g59
sg1753
I01
sg1754
NsS'stale_callback'
p1759
NsS'_rasterized'
p1760
Nsg1736
(lp1761
sg1740
I01
sg1741
(lp1762
sS'_path_effects'
p1763
(lp1764
sS'frameon'
p1765
I01
sg1743
I01
sV__mpl_version__
p1766
S'2.0.0'
p1767
sS'_clippath'
p1768
NsS'_original_dpi'
p1769
F100.0
sS'_sketch'
p1770
NsS'_contains'
p1771
NsS'_tight_parameters'
p1772
(dp1773
sS'_mouseover'
p1774
I00
sS'_animated'
p1775
I00
sS'_propobservers'
p1776
(dp1777
sS'eventson'
p1778
I00
sS'_picker'
p1779
NsS'_remove_method'
p1780
NsS'figurePatch'
p1781
g0
(cmatplotlib.patches
Rectangle
p1782
g2
Ntp1783
Rp1784
(dp1785
g1733
g59
sS'_width'
p1786
F1.0
sS'_fill'
p1787
I01
sg1754
g1757
sg1753
I01
sg1759
NsS'_agg_filter'
p1788
Nsg1763
g1764
sS'_gid'
p1789
Nsg1743
I01
sS'_combined_transform'
p1790
g0
(g690
g2
Ntp1791
Rp1792
(dp1793
g14
I1
sg84
Nsg58
g59
sg41
(dp1794
sbsS'_edgecolor'
p1795
(F1.0
F1.0
F1.0
I1
tp1796
sg1768
Nsg165
F0.0
sg166
F0.0
sg1770
NsS'_original_edgecolor'
p1797
Vw
p1798
sg1760
Nsg1774
I00
sg1775
I00
sg1776
(dp1799
sS'_rect_transform'
p1800
g0
(g690
g2
Ntp1801
Rp1802
(dp1803
g14
I1
sg84
Nsg58
g59
sg41
(dp1804
sbsg1778
I00
sS'_hatch'
p1805
NsS'_stale'
p1806
I01
sS'_linewidth'
p1807
F0.0
sS'clipbox'
p1808
NsS'_height'
p1809
F1.0
sg1779
NsS'_dashes'
p1810
NsS'_antialiased'
p1811
I00
sS'_dashoffset'
p1812
NsS'_original_facecolor'
p1813
S'white'
p1814
sS'_snap'
p1815
NsS'_facecolor'
p1816
(F1.0
F1.0
F1.0
F1.0
tp1817
sS'_joinstyle'
p1818
Vmiter
p1819
sS'_linestyle'
p1820
Vsolid
p1821
sS'_sticky_edges'
p1822
g0
(cmatplotlib.artist
_XYPair
p1823
c__builtin__
tuple
p1824
((lp1825
(lp1826
tp1827
tp1828
Rp1829
sS'_oid'
p1830
I0
sS'_transformSet'
p1831
I01
sS'_angle'
p1832
F0.0
sS'_alpha'
p1833
Nsg60
g112
sS'_us_dashes'
p1834
(NNtp1835
sS'_capstyle'
p1836
Vbutt
p1837
sS'_url'
p1838
Nsg1771
NsS'_axes'
p1839
Nsg1780
Nsbsg1788
Nsg1808
NsV_restore_to_pylab
p1840
I01
sS'images'
p1841
(lp1842
sS'_suptitle'
p1843
NsS'dpi_scale_trans'
p1844
g141
sS'number'
p1845
I1
sS'callbacks'
p1846
g0
(cmatplotlib.cbook
CallbackRegistry
p1847
g2
Ntp1848
Rp1849
sg1815
NsS'_tight'
p1850
I00
sg1806
I01
sS'bbox'
p1851
g115
sg1822
g0
(g1823
g1824
((lp1852
(lp1853
tp1854
tp1855
Rp1856
sg1830
I0
sg1746
(lp1857
sS'legends'
p1858
(lp1859
sS'suppressComposite'
p1860
Nsg1831
I00
sg1833
NsS'_axstack'
p1861
g0
(cmatplotlib.figure
AxesStack
p1862
g2
Ntp1863
Rp1864
(dp1865
S'_default'
p1866
NsS'_elements'
p1867
(lp1868
(((I1
I1
I1
tp1869
(ttp1870
(I1
g7
tp1871
tp1872
asS'_ind'
p1873
I1
sS'_pos'
p1874
I0
sbsg60
NsS'lines'
p1875
(lp1876
sS'patch'
p1877
g1784
sS'subplotpars'
p1878
g0
(cmatplotlib.figure
SubplotParams
p1879
g2
Ntp1880
Rp1881
(dp1882
S'right'
p1883
F0.9
sS'bottom'
p1884
F0.11
sS'top'
p1885
F0.88
sS'wspace'
p1886
F0.2
sS'validate'
p1887
I01
sS'hspace'
p1888
F0.2
sS'left'
p1889
F0.125
sbsg1789
Nsg1838
NsS'bbox_inches'
p1890
g118
sS'transFigure'
p1891
g112
sS'_dpi'
p1892
F100.0
sbsg1759
NsS'_fontproperties'
p1893
g0
(cmatplotlib.font_manager
FontProperties
p1894
g2
Ntp1895
Rp1896
(dp1897
S'_family'
p1898
(lp1899
Vsans-serif
p1900
asS'_file'
p1901
NsS'_variant'
p1902
Vnormal
p1903
sS'_slant'
p1904
g1903
sS'_size'
p1905
F12.0
sS'_weight'
p1906
I400
sS'_stretch'
p1907
g1903
sbsg1788
Nsg1763
g1764
sS'_multialignment'
p1908
Nsg1743
I01
sg1768
Nsg165
F1.0
sg166
F0.5
sg1770
Nsg1771
Nsg1760
Nsg1774
I00
sg1775
I00
sg1776
(dp1909
sS'_renderer'
p1910
Nsg1778
I00
sg1839
g7
sg1808
Nsg1838
NsS'_rotation_mode'
p1911
Nsg1779
Nsg1815
Nsg1806
I01
sS'_verticalalignment'
p1912
Vbaseline
p1913
sS'_text'
p1914
V
p1915
sS'_bbox_patch'
p1916
Nsg1822
g0
(g1823
g1824
((lp1917
(lp1918
tp1919
tp1920
Rp1921
sg1830
I0
sS'_rotation'
p1922
Nsg1831
I01
sg1833
NsS'_linespacing'
p1923
F1.2
sg60
g315
sS'_usetex'
p1924
I00
sS'_wrap'
p1925
I00
sg1789
NsS'_color'
p1926
S'.15'
p1927
sS'_horizontalalignment'
p1928
Vcenter
p1929
sg1780
NsbsS'_current_image'
p1930
NsS'mouseover_set'
p1931
c__builtin__
set
p1932
((lp1933
tp1934
Rp1935
sg1760
NsS'_cursorProps'
p1936
(I1
(F0.0
F0.0
F0.0
I1
tp1937
tp1938
sS'numRows'
p1939
I1
sS'collections'
p1940
(lp1941
sg1839
g7
sg1776
(dp1942
sg1778
I00
sS'containers'
p1943
(lp1944
sg1775
I00
sg1808
NsS'_get_lines'
p1945
g0
(g1725
g2
Ntp1946
Rp1947
(dp1948
g1729
g7
sg1730
Vplot
p1949
sbsS'_aspect'
p1950
Vauto
p1951
sS'fmt_xdata'
p1952
Nsg1846
g0
(g1847
g2
Ntp1953
Rp1954
sg1815
Nsg1816
S'#EAEAF2'
p1955
sg1806
I01
sg1851
g87
sS'ignore_existing_data_limits'
p1956
I00
sg1770
Nsg1830
I0
sg1831
I00
sS'_left_title'
p1957
g0
(g1749
g2
Ntp1958
Rp1959
(dp1960
g1733
g59
sg1753
I01
sg1754
g1757
sg1759
Nsg1893
g0
(g1894
g2
Ntp1961
Rp1962
(dp1963
g1898
g1899
sg1901
Nsg1902
g1903
sg1904
g1903
sg1905
F12.0
sg1906
I400
sg1907
g1903
sbsg1788
Nsg1763
g1764
sg1908
Nsg1743
I01
sg1768
Nsg165
F1.0
sg166
F0.0
sg1770
Nsg1771
Nsg1760
Nsg1774
I00
sg1775
I00
sg1776
(dp1964
sg1910
Nsg1778
I00
sg1839
g7
sg1808
Nsg1838
Nsg1911
Nsg1779
Nsg1815
Nsg1806
I01
sg1912
g1913
sg1914
V
p1965
sg1916
Nsg1822
g0
(g1823
g1824
((lp1966
(lp1967
tp1968
tp1969
Rp1970
sg1830
I0
sg1922
Nsg1831
I01
sg1833
Nsg1923
F1.2
sg60
g319
sg1924
I00
sg1925
I00
sg1789
Nsg1926
g1927
sg1928
Vleft
p1971
sg1780
NsbsS'_right_title'
p1972
g0
(g1749
g2
Ntp1973
Rp1974
(dp1975
g1733
g59
sg1753
I01
sg1754
g1757
sg1759
Nsg1893
g0
(g1894
g2
Ntp1976
Rp1977
(dp1978
g1898
g1899
sg1901
Nsg1902
g1903
sg1904
g1903
sg1905
F12.0
sg1906
I400
sg1907
g1903
sbsg1788
Nsg1763
g1764
sg1908
Nsg1743
I01
sg1768
Nsg165
F1.0
sg166
F1.0
sg1770
Nsg1771
Nsg1760
Nsg1774
I00
sg1775
I00
sg1776
(dp1979
sg1910
Nsg1778
I00
sg1839
g7
sg1808
Nsg1838
Nsg1911
Nsg1779
Nsg1815
Nsg1806
I01
sg1912
g1913
sg1914
V
p1980
sg1916
Nsg1822
g0
(g1823
g1824
((lp1981
(lp1982
tp1983
tp1984
Rp1985
sg1830
I0
sg1922
Nsg1831
I01
sg1833
Nsg1923
F1.2
sg60
g323
sg1924
I00
sg1925
I00
sg1789
Nsg1926
g1927
sg1928
Vright
p1986
sg1780
NsbsS'transScale'
p1987
g63
sg60
NsS'axison'
p1988
I01
sg1877
g0
(g1782
g2
Ntp1989
Rp1990
(dp1991
g1733
g59
sg1786
F1.0
sg1787
I01
sg1754
g1757
sg1753
I01
sg1759
Nsg1788
Nsg1763
g1764
sg1789
Nsg1743
I01
sg1790
g0
(g690
g2
Ntp1992
Rp1993
(dp1994
g14
I1
sg84
Nsg58
g59
sg41
(dp1995
sbsg1795
(F0.0
F0.0
F0.0
F0.0
tp1996
sg1768
Nsg165
F0.0
sg166
F0.0
sg1770
Nsg1797
VNone
p1997
sg1760
Nsg1774
I00
sg1775
I00
sg1776
(dp1998
sg1800
g770
sg1778
I00
sg1805
Nsg1806
I01
sg1807
F0.0
sg1808
Nsg1809
F1.0
sg1779
Nsg1810
Nsg1811
I01
sg1812
Nsg1813
g1955
sg1815
Nsg1816
(F0.9176470588235294
F0.9176470588235294
F0.9490196078431372
F1.0
tp1999
sg1818
g1819
sg1820
g1821
sg1822
g0
(g1823
g1824
((lp2000
(lp2001
tp2002
tp2003
Rp2004
sg1830
I0
sg1831
I01
sg1832
F0.0
sg1833
Nsg60
g81
sg1834
(NNtp2005
sg1836
g1837
sg1838
Nsg1771
Nsg1839
Nsg1780
NsbsS'viewLim'
p2006
g23
sg1763
g1764
sS'_subplotspec'
p2007
g0
(cmatplotlib.gridspec
SubplotSpec
p2008
g2
Ntp2009
Rp2010
(dp2011
S'num1'
p2012
I0
sS'num2'
p2013
NsS'_gridspec'
p2014
g0
(cmatplotlib.gridspec
GridSpec
p2015
g2
Ntp2016
Rp2017
(dp2018
S'_nrows'
p2019
I1
sg1883
NsS'_col_width_ratios'
p2020
Nsg1884
Nsg1885
Nsg1886
NsS'_ncols'
p2021
I1
sg1888
NsS'_row_height_ratios'
p2022
Nsg1889
NsbsbsS'_adjustable'
p2023
Vbox
p2024
sg1754
g1757
sS'titleOffsetTrans'
p2025
g310
sS'_yaxis_transform'
p2026
g163
sS'_gridOn'
p2027
I01
sg1759
NsS'colNum'
p2028
I0
sg1788
Nsg1841
(lp2029
sS'_autoscaleXon'
p2030
I01
sS'_xmargin'
p2031
F0.05
sS'rowNum'
p2032
I0
sS'_position'
p2033
g90
sS'_rasterization_zorder'
p2034
NsS'_cachedRenderer'
p2035
NsS'_navigate'
p2036
I01
sg1768
NsS'_originalPosition'
p2037
g0
(g21
g2
Ntp2038
Rp2039
(dp2040
g14
I1
sg25
g26
(g27
(I0
tp2041
g29
tp2042
Rp2043
(I1
(L2L
tp2044
g36
I00
S'\x00\x00\x00\x00\x00\x00\xf0\x7f\x00\x00\x00\x00\x00\x00\xf0\x7f'
p2045
tp2046
bsg41
(dp2047
sg43
g26
(g27
(I0
tp2048
g29
tp2049
Rp2050
(I1
(L2L
L2L
tp2051
g36
I00
S'\x00\x00\x00\x00\x00\x00\xc0?(\\\x8f\xc2\xf5(\xbc?\xcd\xcc\xcc\xcc\xcc\xcc\xec?)\\\x8f\xc2\xf5(\xec?'
p2052
tp2053
bsg50
g26
(g27
(I0
tp2054
g29
tp2055
Rp2056
(I1
(L2L
L2L
tp2057
g36
I00
S'\x00\x00\x00\x00\x00\x00\xc0?(\\\x8f\xc2\xf5(\xbc?\xcd\xcc\xcc\xcc\xcc\xcc\xec?)\\\x8f\xc2\xf5(\xec?'
p2058
tp2059
bsg57
I01
sg58
g59
sbsg1771
NsS'_xaxis_transform'
p2060
g242
sg1774
I00
sS'figbox'
p2061
g90
sS'xaxis'
p2062
g0
(cmatplotlib.axis
XAxis
p2063
g2
Ntp2064
Rp2065
(dp2066
g1733
g59
sS'major'
p2067
g0
(cmatplotlib.axis
Ticker
p2068
g2
Ntp2069
Rp2070
(dp2071
S'locator'
p2072
g0
(cmatplotlib.ticker
AutoLocator
p2073
g2
Ntp2074
Rp2075
(dp2076
S'_min_n_ticks'
p2077
I2
sS'_symmetric'
p2078
I00
sS'_nbins'
p2079
Vauto
p2080
sS'_steps'
p2081
g26
(g27
(I0
tp2082
g29
tp2083
Rp2084
(I1
(L5L
tp2085
g36
I00
S'\x00\x00\x00\x00\x00\x00\xf0?\x00\x00\x00\x00\x00\x00\x00@\x00\x00\x00\x00\x00\x00\x04@\x00\x00\x00\x00\x00\x00\x14@\x00\x00\x00\x00\x00\x00$@'
p2086
tp2087
bsS'_prune'
p2088
NsS'_extended_steps'
p2089
g26
(g27
(I0
tp2090
g29
tp2091
Rp2092
(I1
(L10L
tp2093
g36
I00
S'\x9a\x99\x99\x99\x99\x99\xb9?\x9a\x99\x99\x99\x99\x99\xc9?\x00\x00\x00\x00\x00\x00\xd0?\x00\x00\x00\x00\x00\x00\xe0?\x00\x00\x00\x00\x00\x00\xf0?\x00\x00\x00\x00\x00\x00\x00@\x00\x00\x00\x00\x00\x00\x04@\x00\x00\x00\x00\x00\x00\x14@\x00\x00\x00\x00\x00\x00$@\x00\x00\x00\x00\x00\x004@'
p2094
tp2095
bsS'_integer'
p2096
I00
sS'axis'
p2097
g2065
sbsS'formatter'
p2098
g0
(cmatplotlib.ticker
ScalarFormatter
p2099
g2
Ntp2100
Rp2101
(dp2102
S'_powerlimits'
p2103
(lp2104
I-7
aI7
asS'orderOfMagnitude'
p2105
I0
sS'_useOffset'
p2106
I01
sS'_useLocale'
p2107
I00
sS'format'
p2108
g59
sS'_useMathText'
p2109
I00
sS'_offset_threshold'
p2110
I4
sS'offset'
p2111
I0
sg1924
I00
sS'_scientific'
p2112
I01
sg2097
g2065
sbsbsS'isDefault_label'
p2113
I01
sS'_scale'
p2114
g0
(cmatplotlib.scale
LinearScale
p2115
g2
Ntp2116
Rp2117
sg1754
g1757
sg1753
I01
sS'_gridOnMinor'
p2118
I00
sg1759
Nsg1788
NsS'_smart_bounds'
p2119
I00
sg1763
g1764
sg1743
I01
sg1768
NsS'offsetText'
p2120
g0
(g1749
g2
Ntp2121
Rp2122
(dp2123
g1733
g59
sg1753
I01
sg1754
g1757
sg1759
Nsg1893
g0
(g1894
g2
Ntp2124
Rp2125
(dp2126
g1898
(lp2127
g1900
asg1901
Nsg1902
g1903
sg1904
g1903
sg1905
F10.0
sg1906
I400
sg1907
g1903
sbsg1788
Nsg1763
g1764
sg1908
Nsg1743
I01
sg1768
Nsg165
I0
sg166
I1
sg1770
Nsg1771
Nsg1760
Nsg1774
I00
sg1775
I00
sg1776
(dp2128
sg1910
Nsg1778
I00
sg1839
Nsg1808
Nsg1838
Nsg1911
Nsg1779
Nsg1815
Nsg1806
I01
sg1912
Vtop
p2129
sg1914
V
p2130
sg1916
Nsg1822
g0
(g1823
g1824
((lp2131
(lp2132
tp2133
tp2134
Rp2135
sg1830
I0
sg1922
Nsg1831
I01
sg1833
Nsg1923
F1.2
sg60
g1047
sg1924
I00
sg1925
I00
sg1789
Nsg1926
g1927
sg1928
Vright
p2136
sg1780
Nsbsg1770
Nsg1771
Nsg1760
NsS'label'
p2137
g0
(g1749
g2
Ntp2138
Rp2139
(dp2140
g1733
g59
sg1753
I01
sg1754
g1757
sg1759
Nsg1893
g0
(g1894
g2
Ntp2141
Rp2142
(dp2143
g1898
(lp2144
g1900
asg1901
Nsg1902
g1903
sg1904
g1903
sg1905
F11.0
sg1906
I400
sg1907
g1903
sbsg1788
Nsg1763
g1764
sg1908
Nsg1743
I01
sg1768
Nsg165
I0
sg166
F0.5
sg1770
Nsg1771
Nsg1760
Nsg1774
I00
sg1775
I00
sg1776
(dp2145
sg1910
Nsg1778
I00
sg1839
Nsg1808
Nsg1838
Nsg1911
Nsg1779
Nsg1815
Nsg1806
I01
sg1912
Vtop
p2146
sg1914
V
p2147
sg1916
Nsg1822
g0
(g1823
g1824
((lp2148
(lp2149
tp2150
tp2151
Rp2152
sg1830
I0
sg1922
Nsg1831
I01
sg1833
Nsg1923
F1.2
sg60
g688
sg1924
I00
sg1925
I00
sg1789
Nsg1926
g1927
sg1928
Vcenter
p2153
sg1780
Nsbsg1774
I00
sS'isDefault_majfmt'
p2154
I01
sg1775
I00
sg1776
(dp2155
sS'units'
p2156
Nsg1778
I00
sS'minor'
p2157
g0
(g2068
g2
Ntp2158
Rp2159
(dp2160
g2072
g0
(cmatplotlib.ticker
NullLocator
p2161
g2
Ntp2162
Rp2163
(dp2164
g2097
g2065
sbsg2098
g0
(cmatplotlib.ticker
NullFormatter
p2165
g2
Ntp2166
Rp2167
(dp2168
g2097
g2065
sbsbsg1839
g7
sS'_major_tick_kw'
p2169
(dp2170
Vtick1On
p2171
I01
sVgridOn
p2172
I01
sVtick2On
p2173
I00
ssS'isDefault_minloc'
p2174
I01
sg1808
g451
sg1779
NsS'_gridOnMajor'
p2175
I01
sS'_lastNumMinorTicks'
p2176
I1
sS'labelpad'
p2177
F4.0
sS'majorTicks'
p2178
(lp2179
g0
(cmatplotlib.axis
XTick
p2180
g2
Ntp2181
Rp2182
(dp2183
g1733
g59
sg1786
F1.0
sg1754
g1757
sS'tick1On'
p2184
I01
sg1753
I01
sg1759
Nsg1830
I0
sg1788
NsS'_pad'
p2185
F7.0
sS'_labelcolor'
p2186
g1927
sS'gridOn'
p2187
I01
sg1905
F0.0
sg1763
g1764
sS'_tickdir'
p2188
Vout
p2189
sg2137
g0
(g1749
g2
Ntp2190
Rp2191
(dp2192
g1733
g59
sg1753
I01
sg1754
g1757
sg1759
Nsg1893
g0
(g1894
g2
Ntp2193
Rp2194
(dp2195
g1898
(lp2196
g1900
asg1901
Nsg1902
g1903
sg1904
g1903
sg1905
F10.0
sg1906
I400
sg1907
g1903
sbsg1788
Nsg1763
g1764
sg1908
Nsg1743
I01
sg1768
Nsg165
I0
sg166
I0
sg1770
Nsg1771
Nsg1760
Nsg1774
I00
sg1775
I00
sg1776
(dp2197
sg1910
Nsg1778
I00
sg1839
Nsg1808
Nsg1838
Nsg1911
Nsg1779
Nsg1815
Nsg1806
I01
sg1912
Vtop
p2198
sg1914
V
p2199
sg1916
Nsg1822
g0
(g1823
g1824
((lp2200
(lp2201
tp2202
tp2203
Rp2204
sg1830
I0
sg1922
Nsg1831
I01
sg1833
Nsg1923
F1.2
sg60
g273
sg1924
I00
sg1925
I00
sg1789
Nsg1926
g1927
sg1928
Vcenter
p2205
sg1780
Nsbsg1743
I01
sg1768
NsS'label2On'
p2206
I00
sg1770
Nsg1771
Nsg1760
NsS'tick2On'
p2207
I00
sg1774
I00
sg1775
I00
sg1776
(dp2208
sS'_tickmarkers'
p2209
(I3
I2
tp2210
sg1778
I00
sS'_zorder'
p2211
F2.01
sg1839
g7
sS'label1On'
p2212
I01
sg1808
g521
sg1838
NsS'label1'
p2213
g2191
sS'label2'
p2214
g0
(g1749
g2
Ntp2215
Rp2216
(dp2217
g1733
g59
sg1753
I01
sg1754
g1757
sg1759
Nsg1893
g0
(g1894
g2
Ntp2218
Rp2219
(dp2220
g1898
(lp2221
g1900
asg1901
Nsg1902
g1903
sg1904
g1903
sg1905
F10.0
sg1906
I400
sg1907
g1903
sbsg1788
Nsg1763
g1764
sg1908
Nsg1743
I01
sg1768
Nsg165
I1
sg166
I0
sg1770
Nsg1771
Nsg1760
Nsg1774
I00
sg1775
I00
sg1776
(dp2222
sg1910
Nsg1778
I00
sg1839
Nsg1808
Nsg1838
Nsg1911
Nsg1779
Nsg1815
Nsg1806
I01
sg1912
Vbottom
p2223
sg1914
V
p2224
sg1916
Nsg1822
g0
(g1823
g1824
((lp2225
(lp2226
tp2227
tp2228
Rp2229
sg1830
I0
sg1922
Nsg1831
I01
sg1833
Nsg1923
F1.2
sg60
g282
sg1924
I00
sg1925
I00
sg1789
Nsg1926
g1927
sg1928
Vcenter
p2230
sg1780
Nsbsg1815
NsS'_loc'
p2231
I0
sg1806
I01
sg1822
g0
(g1823
g1824
((lp2232
(lp2233
tp2234
tp2235
Rp2236
sS'_base_pad'
p2237
F7.0
sS'tick1line'
p2238
g0
(cmatplotlib.lines
Line2D
p2239
g2
Ntp2240
Rp2241
(dp2242
g1733
g59
sS'_dashcapstyle'
p2243
Vbutt
p2244
sS'_linestyles'
p2245
Nsg1743
I01
sS'_x_filled'
p2246
NsS'ind_offset'
p2247
I0
sg165
Nsg166
Nsg1770
Nsg1760
Nsg1775
I00
sg1776
(dp2248
sg1778
I00
sg1839
NsS'_markeredgewidth'
p2249
F1.0
sS'_dashSeq'
p2250
NsS'_markerfacecoloralt'
p2251
Vnone
p2252
sS'_markeredgecolor'
p2253
Vauto
p2254
sg1815
Nsg1806
I01
sS'_xorig'
p2255
(I0
tp2256
sg1830
I0
sg1831
I01
sS'_invalidy'
p2257
I01
sS'_invalidx'
p2258
I01
sg60
g242
sS'_us_dashSeq'
p2259
NsS'zorder'
p2260
F2.01
sg1926
g1927
sS'pickradius'
p2261
I5
sg1754
g1757
sS'verticalOffset'
p2262
Nsg1759
Nsg1788
Nsg1763
g1764
sS'_solidjoinstyle'
p2263
Vround
p2264
sg1768
Nsg1771
Nsg1774
I00
sS'_markevery'
p2265
Nsg1780
NsS'_transformed_path'
p2266
NsS'_marker'
p2267
g0
(cmatplotlib.markers
MarkerStyle
p2268
g2
Ntp2269
Rp2270
(dp2271
g2267
I3
sS'_alt_path'
p2272
NsS'_snap_threshold'
p2273
F1.0
sg60
g0
(g139
g2
Ntp2274
Rp2275
(dp2276
g14
I2
sg84
Nsg83
g26
(g27
(I0
tp2277
g29
tp2278
Rp2279
(I1
(L3L
L3L
tp2280
g36
I00
S'\x00\x00\x00\x00\x00\x00\xf0?\x00\x00\x00\x00\x00\x00\x00\x00\x00\x00\x00\x00\x00\x00\x00\x00\x00\x00\x00\x00\x00\x00\x00\x00\x00\x00\x00\x00\x00\x00\xf0\xbf\x00\x00\x00\x00\x00\x00\x00\x00\x00\x00\x00\x00\x00\x00\x00\x00\x00\x00\x00\x00\x00\x00\x00\x00\x00\x00\x00\x00\x00\x00\xf0?'
p2281
tp2282
bsg58
g59
sg41
(dp2283
sbsS'_filled'
p2284
I00
sS'_fillstyle'
p2285
Vfull
p2286
sS'_alt_transform'
p2287
Nsg1836
Vbutt
p2288
sg1818
Vround
p2289
sS'_path'
p2290
g0
(cmatplotlib.path
Path
p2291
g2
Ntp2292
Rp2293
(dp2294
S'_should_simplify'
p2295
I00
sS'_codes'
p2296
NsS'_vertices'
p2297
g26
(g27
(I0
tp2298
g29
tp2299
Rp2300
(I1
(L2L
L2L
tp2301
g36
I00
S'\x00\x00\x00\x00\x00\x00\x00\x80\x00\x00\x00\x00\x00\x00\x00\x00\x00\x00\x00\x00\x00\x00\x00\x80\x00\x00\x00\x00\x00\x00\xf0?'
p2302
tp2303
bsS'_readonly'
p2304
I00
sS'_simplify_threshold'
p2305
F0.1111111111111111
sS'_interpolation_steps'
p2306
I1
sS'_has_nonfinite'
p2307
I00
sbsbsS'_markerfacecolor'
p2308
Vauto
p2309
sg1808
Nsg1779
Nsg1811
I01
sS'_xy'
p2310
Nsg1820
VNone
p2311
sg1822
g0
(g1823
g1824
((lp2312
(lp2313
tp2314
tp2315
Rp2316
sS'_subslice'
p2317
I00
sS'_drawstyle'
p2318
Vdefault
p2319
sS'_solidcapstyle'
p2320
g2264
sS'_us_dashOffset'
p2321
Nsg1833
NsS'_dashjoinstyle'
p2322
g2264
sS'_markersize'
p2323
F0.0
sg1753
I01
sS'_dashOffset'
p2324
Nsg1789
Nsg1838
NsS'_yorig'
p2325
(I0
tp2326
sg1807
F1.75
sg2290
Nsbsg1831
I00
sS'gridline'
p2327
g0
(g2239
g2
Ntp2328
Rp2329
(dp2330
g1733
g59
sg1753
I01
sg2320
g2264
sg1754
g1757
sg2243
g2244
sg2245
Nsg1759
Nsg1788
Nsg1763
g1764
sg2263
g2264
sg1743
I01
sg2246
Nsg1768
Nsg165
g26
(g27
(I0
tp2331
g29
tp2332
Rp2333
(I1
(L2L
tp2334
g36
I00
S'\x00\x00\x00\x00\x00\x00\x00\x00\x00\x00\x00\x00\x00\x00\xf0?'
p2335
tp2336
bsg166
g26
(g27
(I0
tp2337
g29
tp2338
Rp2339
(I1
(L2L
tp2340
g36
I00
S'\x00\x00\x00\x00\x00\x00\x00\x00\x00\x00\x00\x00\x00\x00\x00\x00'
p2341
tp2342
bsg1770
Nsg1771
Nsg1760
Nsg2255
(I0
tp2343
sg1774
I00
sg2265
Nsg1775
I00
sg1776
(dp2344
sg2262
Nsg1778
I00
sg2317
I00
sg1839
Nsg2266
Nsg2249
F0.0
sg2308
g2309
sg2250
Nsg1926
g1814
sg2267
g0
(g2268
g2
Ntp2345
Rp2346
(dp2347
g2267
VNone
p2348
sg2272
Nsg2273
Nsg60
g0
(g690
g2
Ntp2349
Rp2350
(dp2351
g14
I1
sg84
Nsg58
g59
sg41
(dp2352
sbsg2284
I00
sg2285
g2286
sg2287
Nsg1836
g2288
sg1818
g2289
sg2290
g0
(g2291
g2
Ntp2353
Rp2354
(dp2355
g2295
I00
sg2296
Nsg2297
g26
(g27
(I0
tp2356
g29
tp2357
Rp2358
(I1
(L0L
L2L
tp2359
g36
I00
S''
p2360
tp2361
bsg2304
I00
sg2305
F0.1111111111111111
sg2306
I1
sg2307
I00
sbsbsg1779
Nsg2251
g2252
sg1811
I01
sg2253
g2254
sg1815
Nsg2323
F0.0
sg1806
I01
sg2310
g26
(g27
(I0
tp2362
g29
tp2363
Rp2364
(I1
(L2L
L2L
tp2365
g36
I00
S'\x00\x00\x00\x00\x00\x00\x00\x00\x00\x00\x00\x00\x00\x00\x00\x00\x00\x00\x00\x00\x00\x00\x00\x00\x00\x00\x00\x00\x00\x00\xf0?'
p2366
tp2367
bsg1820
V-
p2368
sg1822
g0
(g1823
g1824
((lp2369
(lp2370
tp2371
tp2372
Rp2373
sg1830
I0
sg2318
g2319
sg2247
I0
sg2321
Nsg2261
I5
sg1831
I01
sg1833
F1.0
sg2322
g2264
sg2258
I01
sg60
g242
sg2324
Nsg2259
Nsg2257
I00
sg1789
Nsg1838
Nsg2325
(I0
F1.0
tp2374
sg1808
g591
sg1807
F1.0
sg1780
Nsg2290
g0
(g2291
g2
Ntp2375
Rp2376
(dp2377
g2295
I00
sg2296
Nsg2297
g2364
sg2304
I00
sg2305
F0.1111111111111111
sg2306
I180
sg2307
I00
sbsbsg1833
Nsg1779
NsS'tick2line'
p2378
g0
(g2239
g2
Ntp2379
Rp2380
(dp2381
g1733
g59
sg2243
g2244
sg2245
Nsg1743
I01
sg2246
Nsg2247
I0
sg165
Nsg166
Nsg1770
Nsg1760
Nsg1775
I00
sg1776
(dp2382
sg1778
I00
sg1839
Nsg2249
F1.0
sg2250
Nsg2251
g2252
sg2253
g2254
sg1815
Nsg1806
I01
sg2255
(I0
tp2383
sg1830
I0
sg1831
I01
sg2257
I01
sg2258
I01
sg60
g242
sg2259
Nsg2260
F2.01
sg1926
g1927
sg2261
I5
sg1754
g1757
sg2262
Nsg1759
Nsg1788
Nsg1763
g1764
sg2263
g2264
sg1768
Nsg1771
Nsg1774
I00
sg2265
Nsg1780
Nsg2266
Nsg2267
g0
(g2268
g2
Ntp2384
Rp2385
(dp2386
g2267
I2
sg2272
Nsg2273
F1.0
sg60
g0
(g139
g2
Ntp2387
Rp2388
(dp2389
g14
I2
sg84
Nsg83
g26
(g27
(I0
tp2390
g29
tp2391
Rp2392
(I1
(L3L
L3L
tp2393
g36
I00
S'\x00\x00\x00\x00\x00\x00\xf0?\x00\x00\x00\x00\x00\x00\x00\x00\x00\x00\x00\x00\x00\x00\x00\x00\x00\x00\x00\x00\x00\x00\x00\x00\x00\x00\x00\x00\x00\x00\xf0?\x00\x00\x00\x00\x00\x00\x00\x00\x00\x00\x00\x00\x00\x00\x00\x00\x00\x00\x00\x00\x00\x00\x00\x00\x00\x00\x00\x00\x00\x00\xf0?'
p2394
tp2395
bsg58
g59
sg41
(dp2396
sbsg2284
I00
sg2285
g2286
sg2287
Nsg1836
g2288
sg1818
g2289
sg2290
g2293
sbsg2308
g2309
sg1808
Nsg1779
Nsg1811
I01
sg2310
Nsg1820
VNone
p2397
sg1822
g0
(g1823
g1824
((lp2398
(lp2399
tp2400
tp2401
Rp2402
sg2317
I00
sg2318
g2319
sg2320
g2264
sg2321
Nsg1833
Nsg2322
g2264
sg2323
F0.0
sg1753
I01
sg2324
Nsg1789
Nsg1838
Nsg2325
(I1
tp2403
sg1807
F1.75
sg2290
Nsbsg60
NsS'_labelsize'
p2404
F10.0
sS'_name'
p2405
Vxtick
p2406
sg1789
Nsg1926
g1927
sg1780
Nsbag0
(g2180
g2
Ntp2407
Rp2408
(dp2409
g1733
g59
sg1786
F1.0
sg1754
g1757
sg2184
I01
sg1753
I01
sg1759
Nsg1830
I0
sg1788
Nsg2185
F7.0
sg2186
g1927
sg2187
I01
sg1905
F0.0
sg1763
g1764
sg2188
g2189
sg2137
g0
(g1749
g2
Ntp2410
Rp2411
(dp2412
g1733
g59
sg1753
I01
sg1754
g1757
sg1759
Nsg1893
g0
(g1894
g2
Ntp2413
Rp2414
(dp2415
g1898
(lp2416
g1900
asg1901
Nsg1902
g1903
sg1904
g1903
sg1905
F10.0
sg1906
I400
sg1907
g1903
sbsg1788
Nsg1763
g1764
sg1908
Nsg1743
I01
sg1768
Nsg165
I0
sg166
I0
sg1770
Nsg1771
Nsg1760
Nsg1774
I00
sg1775
I00
sg1776
(dp2417
sg1910
Nsg1778
I00
sg1839
Nsg1808
Nsg1838
Nsg1911
Nsg1779
Nsg1815
Nsg1806
I01
sg1912
g2198
sg1914
V
p2418
sg1916
Nsg1822
g0
(g1823
g1824
((lp2419
(lp2420
tp2421
tp2422
Rp2423
sg1830
I0
sg1922
Nsg1831
I01
sg1833
Nsg1923
F1.2
sg60
g255
sg1924
I00
sg1925
I00
sg1789
Nsg1926
g1927
sg1928
g2205
sg1780
Nsbsg1743
I01
sg1768
Nsg2206
I00
sg1770
Nsg1771
Nsg1760
Nsg2207
I00
sg1774
I00
sg1775
I00
sg1776
(dp2424
sg2209
(I3
I2
tp2425
sg1778
I00
sg2211
F2.01
sg1839
g7
sg2212
I01
sg1808
g741
sg1838
Nsg2213
g2411
sg2214
g0
(g1749
g2
Ntp2426
Rp2427
(dp2428
g1733
g59
sg1753
I01
sg1754
g1757
sg1759
Nsg1893
g0
(g1894
g2
Ntp2429
Rp2430
(dp2431
g1898
(lp2432
g1900
asg1901
Nsg1902
g1903
sg1904
g1903
sg1905
F10.0
sg1906
I400
sg1907
g1903
sbsg1788
Nsg1763
g1764
sg1908
Nsg1743
I01
sg1768
Nsg165
I1
sg166
I0
sg1770
Nsg1771
Nsg1760
Nsg1774
I00
sg1775
I00
sg1776
(dp2433
sg1910
Nsg1778
I00
sg1839
Nsg1808
Nsg1838
Nsg1911
Nsg1779
Nsg1815
Nsg1806
I01
sg1912
g2223
sg1914
V
p2434
sg1916
Nsg1822
g0
(g1823
g1824
((lp2435
(lp2436
tp2437
tp2438
Rp2439
sg1830
I0
sg1922
Nsg1831
I01
sg1833
Nsg1923
F1.2
sg60
g291
sg1924
I00
sg1925
I00
sg1789
Nsg1926
g1927
sg1928
g2230
sg1780
Nsbsg1815
Nsg2231
I0
sg1806
I01
sg1822
g0
(g1823
g1824
((lp2440
(lp2441
tp2442
tp2443
Rp2444
sg2237
F7.0
sg2238
g0
(g2239
g2
Ntp2445
Rp2446
(dp2447
g1733
g59
sg2243
g2244
sg2245
Nsg1743
I01
sg2246
Nsg2247
I0
sg165
Nsg166
Nsg1770
Nsg1760
Nsg1775
I00
sg1776
(dp2448
sg1778
I00
sg1839
Nsg2249
F1.0
sg2250
Nsg2251
g2252
sg2253
g2254
sg1815
Nsg1806
I01
sg2255
(I0
tp2449
sg1830
I0
sg1831
I01
sg2257
I01
sg2258
I01
sg60
g242
sg2259
Nsg2260
F2.01
sg1926
g1927
sg2261
I5
sg1754
g1757
sg2262
Nsg1759
Nsg1788
Nsg1763
g1764
sg2263
g2264
sg1768
Nsg1771
Nsg1774
I00
sg2265
Nsg1780
Nsg2266
Nsg2267
g0
(g2268
g2
Ntp2450
Rp2451
(dp2452
g2267
I3
sg2272
Nsg2273
F1.0
sg60
g0
(g139
g2
Ntp2453
Rp2454
(dp2455
g14
I2
sg84
Nsg83
g26
(g27
(I0
tp2456
g29
tp2457
Rp2458
(I1
(L3L
L3L
tp2459
g36
I00
S'\x00\x00\x00\x00\x00\x00\xf0?\x00\x00\x00\x00\x00\x00\x00\x00\x00\x00\x00\x00\x00\x00\x00\x00\x00\x00\x00\x00\x00\x00\x00\x00\x00\x00\x00\x00\x00\x00\xf0\xbf\x00\x00\x00\x00\x00\x00\x00\x00\x00\x00\x00\x00\x00\x00\x00\x00\x00\x00\x00\x00\x00\x00\x00\x00\x00\x00\x00\x00\x00\x00\xf0?'
p2460
tp2461
bsg58
g59
sg41
(dp2462
sbsg2284
I00
sg2285
g2286
sg2287
Nsg1836
g2288
sg1818
g2289
sg2290
g2293
sbsg2308
g2309
sg1808
Nsg1779
Nsg1811
I01
sg2310
Nsg1820
g2311
sg1822
g0
(g1823
g1824
((lp2463
(lp2464
tp2465
tp2466
Rp2467
sg2317
I00
sg2318
g2319
sg2320
g2264
sg2321
Nsg1833
Nsg2322
g2264
sg2323
F0.0
sg1753
I01
sg2324
Nsg1789
Nsg1838
Nsg2325
g2326
sg1807
F1.75
sg2290
Nsbsg1831
I00
sg2327
g0
(g2239
g2
Ntp2468
Rp2469
(dp2470
g1733
g59
sg1753
I01
sg2320
g2264
sg1754
g1757
sg2243
g2244
sg2245
Nsg1759
Nsg1788
Nsg1763
g1764
sg2263
g2264
sg1743
I01
sg2246
Nsg1768
Nsg165
g26
(g27
(I0
tp2471
g29
tp2472
Rp2473
(I1
(L2L
tp2474
g36
I00
S'\x00\x00\x00\x00\x00\x00\x00\x00\x00\x00\x00\x00\x00\x00\xf0?'
p2475
tp2476
bsg166
g26
(g27
(I0
tp2477
g29
tp2478
Rp2479
(I1
(L2L
tp2480
g36
I00
S'\x00\x00\x00\x00\x00\x00\x00\x00\x00\x00\x00\x00\x00\x00\x00\x00'
p2481
tp2482
bsg1770
Nsg1771
Nsg1760
Nsg2255
(I0
tp2483
sg1774
I00
sg2265
Nsg1775
I00
sg1776
(dp2484
sg2262
Nsg1778
I00
sg2317
I00
sg1839
Nsg2266
Nsg2249
F0.0
sg2308
g2309
sg2250
Nsg1926
g1814
sg2267
g0
(g2268
g2
Ntp2485
Rp2486
(dp2487
g2267
g2348
sg2272
Nsg2273
Nsg60
g0
(g690
g2
Ntp2488
Rp2489
(dp2490
g14
I1
sg84
Nsg58
g59
sg41
(dp2491
sbsg2284
I00
sg2285
g2286
sg2287
Nsg1836
g2288
sg1818
g2289
sg2290
g0
(g2291
g2
Ntp2492
Rp2493
(dp2494
g2295
I00
sg2296
Nsg2297
g26
(g27
(I0
tp2495
g29
tp2496
Rp2497
(I1
(L0L
L2L
tp2498
g36
I00
g2360
tp2499
bsg2304
I00
sg2305
F0.1111111111111111
sg2306
I1
sg2307
I00
sbsbsg1779
Nsg2251
g2252
sg1811
I01
sg2253
g2254
sg1815
Nsg2323
F0.0
sg1806
I01
sg2310
g26
(g27
(I0
tp2500
g29
tp2501
Rp2502
(I1
(L2L
L2L
tp2503
g36
I00
S'\x00\x00\x00\x00\x00\x00\x00\x00\x00\x00\x00\x00\x00\x00\x00\x00\x00\x00\x00\x00\x00\x00\x00\x00\x00\x00\x00\x00\x00\x00\xf0?'
p2504
tp2505
bsg1820
g2368
sg1822
g0
(g1823
g1824
((lp2506
(lp2507
tp2508
tp2509
Rp2510
sg1830
I0
sg2318
g2319
sg2247
I0
sg2321
Nsg2261
I5
sg1831
I01
sg1833
F1.0
sg2322
g2264
sg2258
I01
sg60
g242
sg2324
Nsg2259
Nsg2257
I00
sg1789
Nsg1838
Nsg2325
g2374
sg1808
g951
sg1807
F1.0
sg1780
Nsg2290
g0
(g2291
g2
Ntp2511
Rp2512
(dp2513
g2295
I00
sg2296
Nsg2297
g2502
sg2304
I00
sg2305
F0.1111111111111111
sg2306
I180
sg2307
I00
sbsbsg1833
Nsg1779
Nsg2378
g0
(g2239
g2
Ntp2514
Rp2515
(dp2516
g1733
g59
sg2243
g2244
sg2245
Nsg1743
I01
sg2246
Nsg2247
I0
sg165
Nsg166
Nsg1770
Nsg1760
Nsg1775
I00
sg1776
(dp2517
sg1778
I00
sg1839
Nsg2249
F1.0
sg2250
Nsg2251
g2252
sg2253
g2254
sg1815
Nsg1806
I01
sg2255
(I0
tp2518
sg1830
I0
sg1831
I01
sg2257
I01
sg2258
I01
sg60
g242
sg2259
Nsg2260
F2.01
sg1926
g1927
sg2261
I5
sg1754
g1757
sg2262
Nsg1759
Nsg1788
Nsg1763
g1764
sg2263
g2264
sg1768
Nsg1771
Nsg1774
I00
sg2265
Nsg1780
Nsg2266
Nsg2267
g0
(g2268
g2
Ntp2519
Rp2520
(dp2521
g2267
I2
sg2272
Nsg2273
F1.0
sg60
g0
(g139
g2
Ntp2522
Rp2523
(dp2524
g14
I2
sg84
Nsg83
g26
(g27
(I0
tp2525
g29
tp2526
Rp2527
(I1
(L3L
L3L
tp2528
g36
I00
S'\x00\x00\x00\x00\x00\x00\xf0?\x00\x00\x00\x00\x00\x00\x00\x00\x00\x00\x00\x00\x00\x00\x00\x00\x00\x00\x00\x00\x00\x00\x00\x00\x00\x00\x00\x00\x00\x00\xf0?\x00\x00\x00\x00\x00\x00\x00\x00\x00\x00\x00\x00\x00\x00\x00\x00\x00\x00\x00\x00\x00\x00\x00\x00\x00\x00\x00\x00\x00\x00\xf0?'
p2529
tp2530
bsg58
g59
sg41
(dp2531
sbsg2284
I00
sg2285
g2286
sg2287
Nsg1836
g2288
sg1818
g2289
sg2290
g2293
sbsg2308
g2309
sg1808
Nsg1779
Nsg1811
I01
sg2310
Nsg1820
g2397
sg1822
g0
(g1823
g1824
((lp2532
(lp2533
tp2534
tp2535
Rp2536
sg2317
I00
sg2318
g2319
sg2320
g2264
sg2321
Nsg1833
Nsg2322
g2264
sg2323
F0.0
sg1753
I01
sg2324
Nsg1789
Nsg1838
Nsg2325
g2403
sg1807
F1.75
sg2290
Nsbsg60
Nsg2404
F10.0
sg2405
g2406
sg1789
Nsg1926
g1927
sg1780
NsbasS'isDefault_majloc'
p2537
I01
sg1846
g0
(g1847
g2
Ntp2538
Rp2539
sg1815
Nsg1806
I01
sS'_autolabelpos'
p2540
I01
sg1822
g0
(g1823
g1824
((lp2541
(lp2542
tp2543
tp2544
Rp2545
sg1830
I0
sS'_lastNumMajorTicks'
p2546
I1
sS'converter'
p2547
Nsg1831
I00
sg1833
NsS'offset_text_position'
p2548
Vbottom
p2549
sg60
NsS'label_position'
p2550
Vbottom
p2551
sg1789
Nsg1838
Nsg2261
I15
sS'minorTicks'
p2552
(lp2553
g0
(g2180
g2
Ntp2554
Rp2555
(dp2556
g1733
g59
sg1786
F0.5
sg1754
g1757
sg2184
I01
sg1753
I01
sg1759
Nsg1830
I0
sg1788
Nsg2185
F3.4
sg2186
g1927
sg2187
I00
sg1905
F0.0
sg1763
g1764
sg2188
g2189
sg2137
g0
(g1749
g2
Ntp2557
Rp2558
(dp2559
g1733
g59
sg1753
I01
sg1754
g1757
sg1759
Nsg1893
g0
(g1894
g2
Ntp2560
Rp2561
(dp2562
g1898
(lp2563
g1900
asg1901
Nsg1902
g1903
sg1904
g1903
sg1905
F10.0
sg1906
I400
sg1907
g1903
sbsg1788
Nsg1763
g1764
sg1908
Nsg1743
I01
sg1768
Nsg165
I0
sg166
I0
sg1770
Nsg1771
Nsg1760
Nsg1774
I00
sg1775
I00
sg1776
(dp2564
sg1910
Nsg1778
I00
sg1839
Nsg1808
Nsg1838
Nsg1911
Nsg1779
Nsg1815
Nsg1806
I01
sg1912
g2198
sg1914
V
p2565
sg1916
Nsg1822
g0
(g1823
g1824
((lp2566
(lp2567
tp2568
tp2569
Rp2570
sg1830
I0
sg1922
Nsg1831
I01
sg1833
Nsg1923
F1.2
sg60
g246
sg1924
I00
sg1925
I00
sg1789
Nsg1926
g1927
sg1928
g2205
sg1780
Nsbsg1743
I01
sg1768
Nsg2206
I00
sg1770
Nsg1771
Nsg1760
Nsg2207
I00
sg1774
I00
sg1775
I00
sg1776
(dp2571
sg2209
(I3
I2
tp2572
sg1778
I00
sg2211
I2
sg1839
g7
sg2212
I01
sg1808
g661
sg1838
Nsg2213
g2558
sg2214
g0
(g1749
g2
Ntp2573
Rp2574
(dp2575
g1733
g59
sg1753
I01
sg1754
g1757
sg1759
Nsg1893
g0
(g1894
g2
Ntp2576
Rp2577
(dp2578
g1898
(lp2579
g1900
asg1901
Nsg1902
g1903
sg1904
g1903
sg1905
F10.0
sg1906
I400
sg1907
g1903
sbsg1788
Nsg1763
g1764
sg1908
Nsg1743
I01
sg1768
Nsg165
I1
sg166
I0
sg1770
Nsg1771
Nsg1760
Nsg1774
I00
sg1775
I00
sg1776
(dp2580
sg1910
Nsg1778
I00
sg1839
Nsg1808
Nsg1838
Nsg1911
Nsg1779
Nsg1815
Nsg1806
I01
sg1912
g2223
sg1914
V
p2581
sg1916
Nsg1822
g0
(g1823
g1824
((lp2582
(lp2583
tp2584
tp2585
Rp2586
sg1830
I0
sg1922
Nsg1831
I01
sg1833
Nsg1923
F1.2
sg60
g264
sg1924
I00
sg1925
I00
sg1789
Nsg1926
g1927
sg1928
g2230
sg1780
Nsbsg1815
Nsg2231
I0
sg1806
I01
sg1822
g0
(g1823
g1824
((lp2587
(lp2588
tp2589
tp2590
Rp2591
sg2237
F3.4
sg2238
g0
(g2239
g2
Ntp2592
Rp2593
(dp2594
g1733
g59
sg2243
g2244
sg2245
Nsg1743
I01
sg2246
Nsg2247
I0
sg165
Nsg166
Nsg1770
Nsg1760
Nsg1775
I00
sg1776
(dp2595
sg1778
I00
sg1839
Nsg2249
F0.5
sg2250
Nsg2251
g2252
sg2253
g2254
sg1815
Nsg1806
I01
sg2255
(I0
tp2596
sg1830
I0
sg1831
I01
sg2257
I01
sg2258
I01
sg60
g242
sg2259
Nsg2260
I2
sg1926
g1927
sg2261
I5
sg1754
g1757
sg2262
Nsg1759
Nsg1788
Nsg1763
g1764
sg2263
g2264
sg1768
Nsg1771
Nsg1774
I00
sg2265
Nsg1780
Nsg2266
Nsg2267
g0
(g2268
g2
Ntp2597
Rp2598
(dp2599
g2267
I3
sg2272
Nsg2273
F1.0
sg60
g0
(g139
g2
Ntp2600
Rp2601
(dp2602
g14
I2
sg84
Nsg83
g26
(g27
(I0
tp2603
g29
tp2604
Rp2605
(I1
(L3L
L3L
tp2606
g36
I00
S'\x00\x00\x00\x00\x00\x00\xf0?\x00\x00\x00\x00\x00\x00\x00\x00\x00\x00\x00\x00\x00\x00\x00\x00\x00\x00\x00\x00\x00\x00\x00\x00\x00\x00\x00\x00\x00\x00\xf0\xbf\x00\x00\x00\x00\x00\x00\x00\x00\x00\x00\x00\x00\x00\x00\x00\x00\x00\x00\x00\x00\x00\x00\x00\x00\x00\x00\x00\x00\x00\x00\xf0?'
p2607
tp2608
bsg58
g59
sg41
(dp2609
sbsg2284
I00
sg2285
g2286
sg2287
Nsg1836
g2288
sg1818
g2289
sg2290
g2293
sbsg2308
g2309
sg1808
Nsg1779
Nsg1811
I01
sg2310
Nsg1820
g2311
sg1822
g0
(g1823
g1824
((lp2610
(lp2611
tp2612
tp2613
Rp2614
sg2317
I00
sg2318
g2319
sg2320
g2264
sg2321
Nsg1833
Nsg2322
g2264
sg2323
F0.0
sg1753
I01
sg2324
Nsg1789
Nsg1838
Nsg2325
g2326
sg1807
F1.75
sg2290
Nsbsg1831
I00
sg2327
g0
(g2239
g2
Ntp2615
Rp2616
(dp2617
g1733
g59
sg1753
I01
sg2320
g2264
sg1754
g1757
sg2243
g2244
sg2245
Nsg1759
Nsg1788
Nsg1763
g1764
sg2263
g2264
sg1743
I01
sg2246
Nsg1768
Nsg165
g26
(g27
(I0
tp2618
g29
tp2619
Rp2620
(I1
(L2L
tp2621
g36
I00
S'\x00\x00\x00\x00\x00\x00\x00\x00\x00\x00\x00\x00\x00\x00\xf0?'
p2622
tp2623
bsg166
g26
(g27
(I0
tp2624
g29
tp2625
Rp2626
(I1
(L2L
tp2627
g36
I00
S'\x00\x00\x00\x00\x00\x00\x00\x00\x00\x00\x00\x00\x00\x00\x00\x00'
p2628
tp2629
bsg1770
Nsg1771
Nsg1760
Nsg2255
(F0.0
F0.0
tp2630
sg1774
I00
sg2265
Nsg1775
I00
sg1776
(dp2631
sg2262
Nsg1778
I00
sg2317
I00
sg1839
Nsg2266
Nsg2249
F0.0
sg2308
g2309
sg2250
Nsg1926
g1814
sg2267
g0
(g2268
g2
Ntp2632
Rp2633
(dp2634
g2267
g2348
sg2272
Nsg2273
Nsg60
g0
(g690
g2
Ntp2635
Rp2636
(dp2637
g14
I1
sg84
Nsg58
g59
sg41
(dp2638
sbsg2284
I00
sg2285
g2286
sg2287
Nsg1836
g2288
sg1818
g2289
sg2290
g0
(g2291
g2
Ntp2639
Rp2640
(dp2641
g2295
I00
sg2296
Nsg2297
g26
(g27
(I0
tp2642
g29
tp2643
Rp2644
(I1
(L0L
L2L
tp2645
g36
I00
g2360
tp2646
bsg2304
I00
sg2305
F0.1111111111111111
sg2306
I1
sg2307
I00
sbsbsg1779
Nsg2251
g2252
sg1811
I01
sg2253
g2254
sg1815
Nsg2323
F0.0
sg1806
I01
sg2310
g26
(g27
(I0
tp2647
g29
tp2648
Rp2649
(I1
(L2L
L2L
tp2650
g36
I00
S'\x00\x00\x00\x00\x00\x00\x00\x00\x00\x00\x00\x00\x00\x00\x00\x00\x00\x00\x00\x00\x00\x00\x00\x00\x00\x00\x00\x00\x00\x00\xf0?'
p2651
tp2652
bsg1820
g2368
sg1822
g0
(g1823
g1824
((lp2653
(lp2654
tp2655
tp2656
Rp2657
sg1830
I0
sg2318
g2319
sg2247
I0
sg2321
Nsg2261
I5
sg1831
I01
sg1833
F1.0
sg2322
g2264
sg2258
I00
sg60
g242
sg2324
Nsg2259
Nsg2257
I00
sg1789
Nsg1838
Nsg2325
g2374
sg1808
g881
sg1807
F1.0
sg1780
Nsg2290
g0
(g2291
g2
Ntp2658
Rp2659
(dp2660
g2295
I00
sg2296
Nsg2297
g2649
sg2304
I00
sg2305
F0.1111111111111111
sg2306
I180
sg2307
I00
sbsbsg1833
Nsg1779
Nsg2378
g0
(g2239
g2
Ntp2661
Rp2662
(dp2663
g1733
g59
sg2243
g2244
sg2245
Nsg1743
I01
sg2246
Nsg2247
I0
sg165
Nsg166
Nsg1770
Nsg1760
Nsg1775
I00
sg1776
(dp2664
sg1778
I00
sg1839
Nsg2249
F0.5
sg2250
Nsg2251
g2252
sg2253
g2254
sg1815
Nsg1806
I01
sg2255
(I0
tp2665
sg1830
I0
sg1831
I01
sg2257
I01
sg2258
I01
sg60
g242
sg2259
Nsg2260
I2
sg1926
g1927
sg2261
I5
sg1754
g1757
sg2262
Nsg1759
Nsg1788
Nsg1763
g1764
sg2263
g2264
sg1768
Nsg1771
Nsg1774
I00
sg2265
Nsg1780
Nsg2266
Nsg2267
g0
(g2268
g2
Ntp2666
Rp2667
(dp2668
g2267
I2
sg2272
Nsg2273
F1.0
sg60
g0
(g139
g2
Ntp2669
Rp2670
(dp2671
g14
I2
sg84
Nsg83
g26
(g27
(I0
tp2672
g29
tp2673
Rp2674
(I1
(L3L
L3L
tp2675
g36
I00
S'\x00\x00\x00\x00\x00\x00\xf0?\x00\x00\x00\x00\x00\x00\x00\x00\x00\x00\x00\x00\x00\x00\x00\x00\x00\x00\x00\x00\x00\x00\x00\x00\x00\x00\x00\x00\x00\x00\xf0?\x00\x00\x00\x00\x00\x00\x00\x00\x00\x00\x00\x00\x00\x00\x00\x00\x00\x00\x00\x00\x00\x00\x00\x00\x00\x00\x00\x00\x00\x00\xf0?'
p2676
tp2677
bsg58
g59
sg41
(dp2678
sbsg2284
I00
sg2285
g2286
sg2287
Nsg1836
g2288
sg1818
g2289
sg2290
g2293
sbsg2308
g2309
sg1808
Nsg1779
Nsg1811
I01
sg2310
Nsg1820
g2397
sg1822
g0
(g1823
g1824
((lp2679
(lp2680
tp2681
tp2682
Rp2683
sg2317
I00
sg2318
g2319
sg2320
g2264
sg2321
Nsg1833
Nsg2322
g2264
sg2323
F0.0
sg1753
I01
sg2324
Nsg1789
Nsg1838
Nsg2325
g2403
sg1807
F1.75
sg2290
Nsbsg60
Nsg2404
F10.0
sg2405
g2406
sg1789
Nsg1926
g1927
sg1780
Nsbag0
(g2180
g2
Ntp2684
Rp2685
(dp2686
g1733
g59
sg1786
F0.5
sg1754
g1757
sg2184
I01
sg1753
I01
sg1759
Nsg1830
I0
sg1788
Nsg2185
F3.4
sg2186
g1927
sg2187
I00
sg1905
F0.0
sg1763
g1764
sg2188
g2189
sg2137
g0
(g1749
g2
Ntp2687
Rp2688
(dp2689
g1733
g59
sg1753
I01
sg1754
g1757
sg1759
Nsg1893
g0
(g1894
g2
Ntp2690
Rp2691
(dp2692
g1898
(lp2693
g1900
asg1901
Nsg1902
g1903
sg1904
g1903
sg1905
F10.0
sg1906
I400
sg1907
g1903
sbsg1788
Nsg1763
g1764
sg1908
Nsg1743
I01
sg1768
Nsg165
I0
sg166
I0
sg1770
Nsg1771
Nsg1760
Nsg1774
I00
sg1775
I00
sg1776
(dp2694
sg1910
Nsg1778
I00
sg1839
Nsg1808
Nsg1838
Nsg1911
Nsg1779
Nsg1815
Nsg1806
I01
sg1912
g2198
sg1914
V
p2695
sg1916
Nsg1822
g0
(g1823
g1824
((lp2696
(lp2697
tp2698
tp2699
Rp2700
sg1830
I0
sg1922
Nsg1831
I01
sg1833
Nsg1923
F1.2
sg60
g239
sg1924
I00
sg1925
I00
sg1789
Nsg1926
g1927
sg1928
g2205
sg1780
Nsbsg1743
I01
sg1768
Nsg2206
I00
sg1770
Nsg1771
Nsg1760
Nsg2207
I00
sg1774
I00
sg1775
I00
sg1776
(dp2701
sg2209
(I3
I2
tp2702
sg1778
I00
sg2211
I2
sg1839
g7
sg2212
I01
sg1808
g1325
sg1838
Nsg2213
g2688
sg2214
g0
(g1749
g2
Ntp2703
Rp2704
(dp2705
g1733
g59
sg1753
I01
sg1754
g1757
sg1759
Nsg1893
g0
(g1894
g2
Ntp2706
Rp2707
(dp2708
g1898
(lp2709
g1900
asg1901
Nsg1902
g1903
sg1904
g1903
sg1905
F10.0
sg1906
I400
sg1907
g1903
sbsg1788
Nsg1763
g1764
sg1908
Nsg1743
I01
sg1768
Nsg165
I1
sg166
I0
sg1770
Nsg1771
Nsg1760
Nsg1774
I00
sg1775
I00
sg1776
(dp2710
sg1910
Nsg1778
I00
sg1839
Nsg1808
Nsg1838
Nsg1911
Nsg1779
Nsg1815
Nsg1806
I01
sg1912
g2223
sg1914
V
p2711
sg1916
Nsg1822
g0
(g1823
g1824
((lp2712
(lp2713
tp2714
tp2715
Rp2716
sg1830
I0
sg1922
Nsg1831
I01
sg1833
Nsg1923
F1.2
sg60
g300
sg1924
I00
sg1925
I00
sg1789
Nsg1926
g1927
sg1928
g2230
sg1780
Nsbsg1815
Nsg2231
I0
sg1806
I01
sg1822
g0
(g1823
g1824
((lp2717
(lp2718
tp2719
tp2720
Rp2721
sg2237
F3.4
sg2238
g0
(g2239
g2
Ntp2722
Rp2723
(dp2724
g1733
g59
sg2243
g2244
sg2245
Nsg1743
I01
sg2246
Nsg2247
I0
sg165
Nsg166
Nsg1770
Nsg1760
Nsg1775
I00
sg1776
(dp2725
sg1778
I00
sg1839
Nsg2249
F0.5
sg2250
Nsg2251
g2252
sg2253
g2254
sg1815
Nsg1806
I01
sg2255
(I0
tp2726
sg1830
I0
sg1831
I01
sg2257
I01
sg2258
I01
sg60
g242
sg2259
Nsg2260
I2
sg1926
g1927
sg2261
I5
sg1754
g1757
sg2262
Nsg1759
Nsg1788
Nsg1763
g1764
sg2263
g2264
sg1768
Nsg1771
Nsg1774
I00
sg2265
Nsg1780
Nsg2266
Nsg2267
g0
(g2268
g2
Ntp2727
Rp2728
(dp2729
g2267
I3
sg2272
Nsg2273
F1.0
sg60
g0
(g139
g2
Ntp2730
Rp2731
(dp2732
g14
I2
sg84
Nsg83
g26
(g27
(I0
tp2733
g29
tp2734
Rp2735
(I1
(L3L
L3L
tp2736
g36
I00
S'\x00\x00\x00\x00\x00\x00\xf0?\x00\x00\x00\x00\x00\x00\x00\x00\x00\x00\x00\x00\x00\x00\x00\x00\x00\x00\x00\x00\x00\x00\x00\x00\x00\x00\x00\x00\x00\x00\xf0\xbf\x00\x00\x00\x00\x00\x00\x00\x00\x00\x00\x00\x00\x00\x00\x00\x00\x00\x00\x00\x00\x00\x00\x00\x00\x00\x00\x00\x00\x00\x00\xf0?'
p2737
tp2738
bsg58
g59
sg41
(dp2739
sbsg2284
I00
sg2285
g2286
sg2287
Nsg1836
g2288
sg1818
g2289
sg2290
g2293
sbsg2308
g2309
sg1808
Nsg1779
Nsg1811
I01
sg2310
Nsg1820
g2311
sg1822
g0
(g1823
g1824
((lp2740
(lp2741
tp2742
tp2743
Rp2744
sg2317
I00
sg2318
g2319
sg2320
g2264
sg2321
Nsg1833
Nsg2322
g2264
sg2323
F0.0
sg1753
I01
sg2324
Nsg1789
Nsg1838
Nsg2325
g2326
sg1807
F1.75
sg2290
Nsbsg1831
I00
sg2327
g0
(g2239
g2
Ntp2745
Rp2746
(dp2747
g1733
g59
sg1753
I01
sg2320
g2264
sg1754
g1757
sg2243
g2244
sg2245
Nsg1759
Nsg1788
Nsg1763
g1764
sg2263
g2264
sg1743
I01
sg2246
Nsg1768
Nsg165
g26
(g27
(I0
tp2748
g29
tp2749
Rp2750
(I1
(L2L
tp2751
g36
I00
S'\x00\x00\x00\x00\x00\x00\x00\x00\x00\x00\x00\x00\x00\x00\xf0?'
p2752
tp2753
bsg166
g26
(g27
(I0
tp2754
g29
tp2755
Rp2756
(I1
(L2L
tp2757
g36
I00
S'\x00\x00\x00\x00\x00\x00\x00\x00\x00\x00\x00\x00\x00\x00\x00\x00'
p2758
tp2759
bsg1770
Nsg1771
Nsg1760
Nsg2255
g2630
sg1774
I00
sg2265
Nsg1775
I00
sg1776
(dp2760
sg2262
Nsg1778
I00
sg2317
I00
sg1839
Nsg2266
Nsg2249
F0.0
sg2308
g2309
sg2250
Nsg1926
g1814
sg2267
g0
(g2268
g2
Ntp2761
Rp2762
(dp2763
g2267
g2348
sg2272
Nsg2273
Nsg60
g0
(g690
g2
Ntp2764
Rp2765
(dp2766
g14
I1
sg84
Nsg58
g59
sg41
(dp2767
sbsg2284
I00
sg2285
g2286
sg2287
Nsg1836
g2288
sg1818
g2289
sg2290
g0
(g2291
g2
Ntp2768
Rp2769
(dp2770
g2295
I00
sg2296
Nsg2297
g26
(g27
(I0
tp2771
g29
tp2772
Rp2773
(I1
(L0L
L2L
tp2774
g36
I00
g2360
tp2775
bsg2304
I00
sg2305
F0.1111111111111111
sg2306
I1
sg2307
I00
sbsbsg1779
Nsg2251
g2252
sg1811
I01
sg2253
g2254
sg1815
Nsg2323
F0.0
sg1806
I01
sg2310
g26
(g27
(I0
tp2776
g29
tp2777
Rp2778
(I1
(L2L
L2L
tp2779
g36
I00
S'\x00\x00\x00\x00\x00\x00\x00\x00\x00\x00\x00\x00\x00\x00\x00\x00\x00\x00\x00\x00\x00\x00\x00\x00\x00\x00\x00\x00\x00\x00\xf0?'
p2780
tp2781
bsg1820
g2368
sg1822
g0
(g1823
g1824
((lp2782
(lp2783
tp2784
tp2785
Rp2786
sg1830
I0
sg2318
g2319
sg2247
I0
sg2321
Nsg2261
I5
sg1831
I01
sg1833
F1.0
sg2322
g2264
sg2258
I00
sg60
g242
sg2324
Nsg2259
Nsg2257
I00
sg1789
Nsg1838
Nsg2325
g2374
sg1808
g1395
sg1807
F1.0
sg1780
Nsg2290
g0
(g2291
g2
Ntp2787
Rp2788
(dp2789
g2295
I00
sg2296
Nsg2297
g2778
sg2304
I00
sg2305
F0.1111111111111111
sg2306
I180
sg2307
I00
sbsbsg1833
Nsg1779
Nsg2378
g0
(g2239
g2
Ntp2790
Rp2791
(dp2792
g1733
g59
sg2243
g2244
sg2245
Nsg1743
I01
sg2246
Nsg2247
I0
sg165
Nsg166
Nsg1770
Nsg1760
Nsg1775
I00
sg1776
(dp2793
sg1778
I00
sg1839
Nsg2249
F0.5
sg2250
Nsg2251
g2252
sg2253
g2254
sg1815
Nsg1806
I01
sg2255
(I0
tp2794
sg1830
I0
sg1831
I01
sg2257
I01
sg2258
I01
sg60
g242
sg2259
Nsg2260
I2
sg1926
g1927
sg2261
I5
sg1754
g1757
sg2262
Nsg1759
Nsg1788
Nsg1763
g1764
sg2263
g2264
sg1768
Nsg1771
Nsg1774
I00
sg2265
Nsg1780
Nsg2266
Nsg2267
g0
(g2268
g2
Ntp2795
Rp2796
(dp2797
g2267
I2
sg2272
Nsg2273
F1.0
sg60
g0
(g139
g2
Ntp2798
Rp2799
(dp2800
g14
I2
sg84
Nsg83
g26
(g27
(I0
tp2801
g29
tp2802
Rp2803
(I1
(L3L
L3L
tp2804
g36
I00
S'\x00\x00\x00\x00\x00\x00\xf0?\x00\x00\x00\x00\x00\x00\x00\x00\x00\x00\x00\x00\x00\x00\x00\x00\x00\x00\x00\x00\x00\x00\x00\x00\x00\x00\x00\x00\x00\x00\xf0?\x00\x00\x00\x00\x00\x00\x00\x00\x00\x00\x00\x00\x00\x00\x00\x00\x00\x00\x00\x00\x00\x00\x00\x00\x00\x00\x00\x00\x00\x00\xf0?'
p2805
tp2806
bsg58
g59
sg41
(dp2807
sbsg2284
I00
sg2285
g2286
sg2287
Nsg1836
g2288
sg1818
g2289
sg2290
g2293
sbsg2308
g2309
sg1808
Nsg1779
Nsg1811
I01
sg2310
Nsg1820
g2397
sg1822
g0
(g1823
g1824
((lp2808
(lp2809
tp2810
tp2811
Rp2812
sg2317
I00
sg2318
g2319
sg2320
g2264
sg2321
Nsg1833
Nsg2322
g2264
sg2323
F0.0
sg1753
I01
sg2324
Nsg1789
Nsg1838
Nsg2325
g2403
sg1807
F1.75
sg2290
Nsbsg60
Nsg2404
F10.0
sg2405
g2406
sg1789
Nsg1926
g1927
sg1780
Nsbasg1780
NsS'_minor_tick_kw'
p2813
(dp2814
g2171
I01
sg2173
I00
ssS'isDefault_minfmt'
p2815
I01
sbsS'_navigate_mode'
p2816
Nsg1780
NsS'transAxes'
p2817
g81
sS'_connected'
p2818
(dp2819
sS'fmt_ydata'
p2820
NsS'dataLim'
p2821
g0
(g21
g2
Ntp2822
Rp2823
(dp2824
g14
I0
sg25
g26
(g27
(I0
tp2825
g29
tp2826
Rp2827
(I1
(L2L
tp2828
g36
I00
S'\x88\xc6\xfa\xd0X\x1f\xca?\x00\x00\x00\x00\x00\x00\xf0?'
p2829
tp2830
bsg41
(dp2831
sg43
g26
(g27
(I0
tp2832
g29
tp2833
Rp2834
(I1
(L2L
L2L
tp2835
g36
I00
S'\x00\x00\x00\x00\x00\x00\xf0\x7f\x00\x00\x00\x00\x00\x00\xf0\x7f\x00\x00\x00\x00\x00\x00\xf0\xff\x00\x00\x00\x00\x00\x00\xf0\xff'
p2836
tp2837
bsg50
g26
(g27
(I0
tp2838
g29
tp2839
Rp2840
(I1
(L2L
L2L
tp2841
g36
I00
S'\x00\x00\x00\x00\x00\x00\x00\x00\x00\x00\x00\x00\x00\x00\xf0?\x00\x00\x00\x00\x00\x00$@`\x05\x95\xcf\x9d\x82\xd5@'
p2842
tp2843
bsg57
I01
sg58
g59
sbsS'transData'
p2844
g70
sg1779
NsS'_sharey'
p2845
NsS'_sharex'
p2846
NsS'axesPatch'
p2847
g1990
sS'_ymargin'
p2848
F0.05
sS'_axes_locator'
p2849
Nsg1822
g0
(g1823
g1824
((lp2850
(lp2851
tp2852
tp2853
Rp2854
sS'numCols'
p2855
I1
sg1833
Nsg1850
NsS'yaxis'
p2856
g0
(cmatplotlib.axis
YAxis
p2857
g2
Ntp2858
Rp2859
(dp2860
g1733
g59
sg2067
g0
(g2068
g2
Ntp2861
Rp2862
(dp2863
g2072
g0
(g2073
g2
Ntp2864
Rp2865
(dp2866
g2077
I2
sg2078
I00
sg2079
g2080
sg2081
g26
(g27
(I0
tp2867
g29
tp2868
Rp2869
(I1
(L5L
tp2870
g36
I00
S'\x00\x00\x00\x00\x00\x00\xf0?\x00\x00\x00\x00\x00\x00\x00@\x00\x00\x00\x00\x00\x00\x04@\x00\x00\x00\x00\x00\x00\x14@\x00\x00\x00\x00\x00\x00$@'
p2871
tp2872
bsg2088
Nsg2089
g26
(g27
(I0
tp2873
g29
tp2874
Rp2875
(I1
(L10L
tp2876
g36
I00
S'\x9a\x99\x99\x99\x99\x99\xb9?\x9a\x99\x99\x99\x99\x99\xc9?\x00\x00\x00\x00\x00\x00\xd0?\x00\x00\x00\x00\x00\x00\xe0?\x00\x00\x00\x00\x00\x00\xf0?\x00\x00\x00\x00\x00\x00\x00@\x00\x00\x00\x00\x00\x00\x04@\x00\x00\x00\x00\x00\x00\x14@\x00\x00\x00\x00\x00\x00$@\x00\x00\x00\x00\x00\x004@'
p2877
tp2878
bsg2096
I00
sg2097
g2859
sbsg2098
g0
(g2099
g2
Ntp2879
Rp2880
(dp2881
g2103
g2104
sg2105
I0
sg2106
I01
sg2107
I00
sg2108
g59
sg2109
I00
sg2110
I4
sg2111
I0
sg1924
I00
sg2112
I01
sg2097
g2859
sbsbsg2113
I01
sg2114
g0
(g2115
g2
Ntp2882
Rp2883
sg1754
g1757
sg1753
I01
sg2118
I00
sg1759
Nsg1788
Nsg2119
I00
sg1763
g1764
sg1743
I01
sg1768
Nsg2120
g0
(g1749
g2
Ntp2884
Rp2885
(dp2886
g1733
g59
sg1753
I01
sg1754
g1757
sg1759
Nsg1893
g0
(g1894
g2
Ntp2887
Rp2888
(dp2889
g1898
(lp2890
g1900
asg1901
Nsg1902
g1903
sg1904
g1903
sg1905
F10.0
sg1906
I400
sg1907
g1903
sbsg1788
Nsg1763
g1764
sg1908
Nsg1743
I01
sg1768
Nsg165
F0.5
sg166
I0
sg1770
Nsg1771
Nsg1760
Nsg1774
I00
sg1775
I00
sg1776
(dp2891
sg1910
Nsg1778
I00
sg1839
Nsg1808
Nsg1838
Nsg1911
Nsg1779
Nsg1815
Nsg1806
I01
sg1912
Vbaseline
p2892
sg1914
V
p2893
sg1916
Nsg1822
g0
(g1823
g1824
((lp2894
(lp2895
tp2896
tp2897
Rp2898
sg1830
I0
sg1922
Nsg1831
I01
sg1833
Nsg1923
F1.2
sg60
g1273
sg1924
I00
sg1925
I00
sg1789
Nsg1926
g1927
sg1928
Vleft
p2899
sg1780
Nsbsg1770
Nsg1771
Nsg1760
Nsg2137
g0
(g1749
g2
Ntp2900
Rp2901
(dp2902
g1733
g59
sg1753
I01
sg1754
g1757
sg1759
Nsg1893
g0
(g1894
g2
Ntp2903
Rp2904
(dp2905
g1898
(lp2906
g1900
asg1901
Nsg1902
g1903
sg1904
g1903
sg1905
F11.0
sg1906
I400
sg1907
g1903
sbsg1788
Nsg1763
g1764
sg1908
Nsg1743
I01
sg1768
Nsg165
F0.5
sg166
I0
sg1770
Nsg1771
Nsg1760
Nsg1774
I00
sg1775
I00
sg1776
(dp2907
sg1910
Nsg1778
I00
sg1839
Nsg1808
Nsg1838
Nsg1911
Vanchor
p2908
sg1779
Nsg1815
Nsg1806
I01
sg1912
Vbottom
p2909
sg1914
V
p2910
sg1916
Nsg1822
g0
(g1823
g1824
((lp2911
(lp2912
tp2913
tp2914
Rp2915
sg1830
I0
sg1922
Vvertical
p2916
sg1831
I01
sg1833
Nsg1923
F1.2
sg60
g1195
sg1924
I00
sg1925
I00
sg1789
Nsg1926
g1927
sg1928
Vcenter
p2917
sg1780
Nsbsg1774
I00
sg2154
I01
sg1775
I00
sg1776
(dp2918
sg2156
Nsg1778
I00
sg2157
g0
(g2068
g2
Ntp2919
Rp2920
(dp2921
g2072
g0
(g2161
g2
Ntp2922
Rp2923
(dp2924
g2097
g2859
sbsg2098
g0
(g2165
g2
Ntp2925
Rp2926
(dp2927
g2097
g2859
sbsbsg1839
g7
sg2169
(dp2928
g2171
I01
sg2172
I01
sg2173
I00
ssg2174
I01
sg1808
g1169
sg1779
Nsg2175
I01
sg2176
I1
sg2177
F4.0
sg2178
(lp2929
g0
(cmatplotlib.axis
YTick
p2930
g2
Ntp2931
Rp2932
(dp2933
g1733
g59
sg1786
F1.0
sg1754
g1757
sg2184
I01
sg1753
I01
sg1759
Nsg1830
I0
sg1788
Nsg2185
F7.0
sg2186
g1927
sg2187
I01
sg1905
F0.0
sg1763
g1764
sg2188
Vout
p2934
sg2137
g0
(g1749
g2
Ntp2935
Rp2936
(dp2937
g1733
g59
sg1753
I01
sg1754
g1757
sg1759
Nsg1893
g0
(g1894
g2
Ntp2938
Rp2939
(dp2940
g1898
(lp2941
g1900
asg1901
Nsg1902
g1903
sg1904
g1903
sg1905
F10.0
sg1906
I400
sg1907
g1903
sbsg1788
Nsg1763
g1764
sg1908
Nsg1743
I01
sg1768
Nsg165
I0
sg166
I0
sg1770
Nsg1771
Nsg1760
Nsg1774
I00
sg1775
I00
sg1776
(dp2942
sg1910
Nsg1778
I00
sg1839
Nsg1808
Nsg1838
Nsg1911
Nsg1779
Nsg1815
Nsg1806
I01
sg1912
Vcenter_baseline
p2943
sg1914
V
p2944
sg1916
Nsg1822
g0
(g1823
g1824
((lp2945
(lp2946
tp2947
tp2948
Rp2949
sg1830
I0
sg1922
Nsg1831
I01
sg1833
Nsg1923
F1.2
sg60
g188
sg1924
I00
sg1925
I00
sg1789
Nsg1926
g1927
sg1928
Vright
p2950
sg1780
Nsbsg1743
I01
sg1768
Nsg2206
I00
sg1770
Nsg1771
Nsg1760
Nsg2207
I00
sg1774
I00
sg1775
I00
sg1776
(dp2951
sg2209
(I0
I1
tp2952
sg1778
I00
sg2211
F2.01
sg1839
g7
sg2212
I01
sg1808
g1605
sg1838
Nsg2213
g2936
sg2214
g0
(g1749
g2
Ntp2953
Rp2954
(dp2955
g1733
g59
sg1753
I01
sg1754
g1757
sg1759
Nsg1893
g0
(g1894
g2
Ntp2956
Rp2957
(dp2958
g1898
(lp2959
g1900
asg1901
Nsg1902
g1903
sg1904
g1903
sg1905
F10.0
sg1906
I400
sg1907
g1903
sbsg1788
Nsg1763
g1764
sg1908
Nsg1743
I01
sg1768
Nsg165
I0
sg166
I1
sg1770
Nsg1771
Nsg1760
Nsg1774
I00
sg1775
I00
sg1776
(dp2960
sg1910
Nsg1778
I00
sg1839
Nsg1808
Nsg1838
Nsg1911
Nsg1779
Nsg1815
Nsg1806
I01
sg1912
Vcenter_baseline
p2961
sg1914
V
p2962
sg1916
Nsg1822
g0
(g1823
g1824
((lp2963
(lp2964
tp2965
tp2966
Rp2967
sg1830
I0
sg1922
Nsg1831
I01
sg1833
Nsg1923
F1.2
sg60
g159
sg1924
I00
sg1925
I00
sg1789
Nsg1926
g1927
sg1928
Vleft
p2968
sg1780
Nsbsg1815
Nsg2231
I0
sg1806
I01
sg1822
g0
(g1823
g1824
((lp2969
(lp2970
tp2971
tp2972
Rp2973
sg2237
F7.0
sg2238
g0
(g2239
g2
Ntp2974
Rp2975
(dp2976
g1733
g59
sg2243
g2244
sg2245
Nsg1743
I01
sg2246
Nsg2247
I0
sg165
Nsg166
Nsg1770
Nsg1760
Nsg1775
I00
sg1776
(dp2977
sg1778
I00
sg1839
Nsg2249
F1.0
sg2250
Nsg2251
g2252
sg2253
g2254
sg1815
Nsg1806
I01
sg2255
(I0
tp2978
sg1830
I0
sg1831
I01
sg2257
I01
sg2258
I01
sg60
g163
sg2259
Nsg2260
F2.01
sg1926
g1927
sg2261
I5
sg1754
g1757
sg2262
Nsg1759
Nsg1788
Nsg1763
g1764
sg2263
g2264
sg1768
Nsg1771
Nsg1774
I00
sg2265
Nsg1780
Nsg2266
Nsg2267
g0
(g2268
g2
Ntp2979
Rp2980
(dp2981
g2267
I0
sg2272
Nsg2273
F1.0
sg60
g0
(g139
g2
Ntp2982
Rp2983
(dp2984
g14
I2
sg84
Nsg83
g26
(g27
(I0
tp2985
g29
tp2986
Rp2987
(I1
(L3L
L3L
tp2988
g36
I00
S'\x00\x00\x00\x00\x00\x00\xf0\xbf\x00\x00\x00\x00\x00\x00\x00\x00\x00\x00\x00\x00\x00\x00\x00\x00\x00\x00\x00\x00\x00\x00\x00\x00\x00\x00\x00\x00\x00\x00\xf0?\x00\x00\x00\x00\x00\x00\x00\x00\x00\x00\x00\x00\x00\x00\x00\x00\x00\x00\x00\x00\x00\x00\x00\x00\x00\x00\x00\x00\x00\x00\xf0?'
p2989
tp2990
bsg58
g59
sg41
(dp2991
sbsg2284
I00
sg2285
g2286
sg2287
Nsg1836
g2288
sg1818
g2289
sg2290
g0
(g2291
g2
Ntp2992
Rp2993
(dp2994
g2295
I00
sg2296
Nsg2297
g26
(g27
(I0
tp2995
g29
tp2996
Rp2997
(I1
(L2L
L2L
tp2998
g36
I00
S'\x00\x00\x00\x00\x00\x00\x00\x00\x00\x00\x00\x00\x00\x00\x00\x00\x00\x00\x00\x00\x00\x00\xf0?\x00\x00\x00\x00\x00\x00\x00\x00'
p2999
tp3000
bsg2304
I00
sg2305
F0.1111111111111111
sg2306
I1
sg2307
I00
sbsbsg2308
g2309
sg1808
Nsg1779
Nsg1811
I01
sg2310
Nsg1820
VNone
p3001
sg1822
g0
(g1823
g1824
((lp3002
(lp3003
tp3004
tp3005
Rp3006
sg2317
I00
sg2318
g2319
sg2320
g2264
sg2321
Nsg1833
Nsg2322
g2264
sg2323
F0.0
sg1753
I01
sg2324
Nsg1789
Nsg1838
Nsg2325
(I0
tp3007
sg1807
F1.75
sg2290
Nsbsg1831
I00
sg2327
g0
(g2239
g2
Ntp3008
Rp3009
(dp3010
g1733
g59
sg1753
I01
sg2320
g2264
sg1754
g1757
sg2243
g2244
sg2245
Nsg1759
Nsg1788
Nsg1763
g1764
sg2263
g2264
sg1743
I01
sg2246
Nsg1768
Nsg165
g26
(g27
(I0
tp3011
g29
tp3012
Rp3013
(I1
(L2L
tp3014
g36
I00
S'\x00\x00\x00\x00\x00\x00\x00\x00\x00\x00\x00\x00\x00\x00\x00\x00'
p3015
tp3016
bsg166
g26
(g27
(I0
tp3017
g29
tp3018
Rp3019
(I1
(L2L
tp3020
g36
I00
S'\x00\x00\x00\x00\x00\x00\x00\x00\x00\x00\x00\x00\x00\x00\xf0?'
p3021
tp3022
bsg1770
Nsg1771
Nsg1760
Nsg2255
(I0
I1
tp3023
sg1774
I00
sg2265
Nsg1775
I00
sg1776
(dp3024
sg2262
Nsg1778
I00
sg2317
I00
sg1839
Nsg2266
Nsg2249
F0.0
sg2308
g2309
sg2250
Nsg1926
g1814
sg2267
g0
(g2268
g2
Ntp3025
Rp3026
(dp3027
g2267
g2348
sg2272
Nsg2273
Nsg60
g0
(g690
g2
Ntp3028
Rp3029
(dp3030
g14
I1
sg84
Nsg58
g59
sg41
(dp3031
sbsg2284
I00
sg2285
g2286
sg2287
Nsg1836
g2288
sg1818
g2289
sg2290
g0
(g2291
g2
Ntp3032
Rp3033
(dp3034
g2295
I00
sg2296
Nsg2297
g26
(g27
(I0
tp3035
g29
tp3036
Rp3037
(I1
(L0L
L2L
tp3038
g36
I00
g2360
tp3039
bsg2304
I00
sg2305
F0.1111111111111111
sg2306
I1
sg2307
I00
sbsbsg1779
Nsg2251
g2252
sg1811
I01
sg2253
g2254
sg1815
Nsg2323
F0.0
sg1806
I01
sg2310
g26
(g27
(I0
tp3040
g29
tp3041
Rp3042
(I1
(L2L
L2L
tp3043
g36
I00
S'\x00\x00\x00\x00\x00\x00\x00\x00\x00\x00\x00\x00\x00\x00\x00\x00\x00\x00\x00\x00\x00\x00\xf0?\x00\x00\x00\x00\x00\x00\x00\x00'
p3044
tp3045
bsg1820
g2368
sg1822
g0
(g1823
g1824
((lp3046
(lp3047
tp3048
tp3049
Rp3050
sg1830
I0
sg2318
g2319
sg2247
I0
sg2321
Nsg2261
I5
sg1831
I01
sg1833
F1.0
sg2322
g2264
sg2258
I00
sg60
g163
sg2324
Nsg2259
Nsg2257
I01
sg1789
Nsg1838
Nsg2325
(I0
tp3051
sg1808
g1675
sg1807
F1.0
sg1780
Nsg2290
g0
(g2291
g2
Ntp3052
Rp3053
(dp3054
g2295
I00
sg2296
Nsg2297
g3042
sg2304
I00
sg2305
F0.1111111111111111
sg2306
I180
sg2307
I00
sbsbsg1833
Nsg1779
Nsg2378
g0
(g2239
g2
Ntp3055
Rp3056
(dp3057
g1733
g59
sg2243
g2244
sg2245
Nsg1743
I01
sg2246
Nsg2247
I0
sg165
Nsg166
Nsg1770
Nsg1760
Nsg1775
I00
sg1776
(dp3058
sg1778
I00
sg1839
Nsg2249
F1.0
sg2250
Nsg2251
g2252
sg2253
g2254
sg1815
Nsg1806
I01
sg2255
(I1
tp3059
sg1830
I0
sg1831
I01
sg2257
I01
sg2258
I01
sg60
g163
sg2259
Nsg2260
F2.01
sg1926
g1927
sg2261
I5
sg1754
g1757
sg2262
Nsg1759
Nsg1788
Nsg1763
g1764
sg2263
g2264
sg1768
Nsg1771
Nsg1774
I00
sg2265
Nsg1780
Nsg2266
Nsg2267
g0
(g2268
g2
Ntp3060
Rp3061
(dp3062
g2267
I1
sg2272
Nsg2273
F1.0
sg60
g0
(g139
g2
Ntp3063
Rp3064
(dp3065
g14
I2
sg84
Nsg83
g26
(g27
(I0
tp3066
g29
tp3067
Rp3068
(I1
(L3L
L3L
tp3069
g36
I00
S'\x00\x00\x00\x00\x00\x00\xf0?\x00\x00\x00\x00\x00\x00\x00\x00\x00\x00\x00\x00\x00\x00\x00\x00\x00\x00\x00\x00\x00\x00\x00\x00\x00\x00\x00\x00\x00\x00\xf0?\x00\x00\x00\x00\x00\x00\x00\x00\x00\x00\x00\x00\x00\x00\x00\x00\x00\x00\x00\x00\x00\x00\x00\x00\x00\x00\x00\x00\x00\x00\xf0?'
p3070
tp3071
bsg58
g59
sg41
(dp3072
sbsg2284
I00
sg2285
g2286
sg2287
Nsg1836
g2288
sg1818
g2289
sg2290
g2993
sbsg2308
g2309
sg1808
Nsg1779
Nsg1811
I01
sg2310
Nsg1820
VNone
p3073
sg1822
g0
(g1823
g1824
((lp3074
(lp3075
tp3076
tp3077
Rp3078
sg2317
I00
sg2318
g2319
sg2320
g2264
sg2321
Nsg1833
Nsg2322
g2264
sg2323
F0.0
sg1753
I01
sg2324
Nsg1789
Nsg1838
Nsg2325
(I0
tp3079
sg1807
F1.75
sg2290
Nsbsg60
Nsg2404
F10.0
sg2405
Vytick
p3080
sg1789
Nsg1926
g1927
sg1780
Nsbag0
(g2930
g2
Ntp3081
Rp3082
(dp3083
g1733
g59
sg1786
F1.0
sg1754
g1757
sg2184
I01
sg1753
I01
sg1759
Nsg1830
I0
sg1788
Nsg2185
F7.0
sg2186
g1927
sg2187
I01
sg1905
F0.0
sg1763
g1764
sg2188
g2934
sg2137
g0
(g1749
g2
Ntp3084
Rp3085
(dp3086
g1733
g59
sg1753
I01
sg1754
g1757
sg1759
Nsg1893
g0
(g1894
g2
Ntp3087
Rp3088
(dp3089
g1898
(lp3090
g1900
asg1901
Nsg1902
g1903
sg1904
g1903
sg1905
F10.0
sg1906
I400
sg1907
g1903
sbsg1788
Nsg1763
g1764
sg1908
Nsg1743
I01
sg1768
Nsg165
I0
sg166
I0
sg1770
Nsg1771
Nsg1760
Nsg1774
I00
sg1775
I00
sg1776
(dp3091
sg1910
Nsg1778
I00
sg1839
Nsg1808
Nsg1838
Nsg1911
Nsg1779
Nsg1815
Nsg1806
I01
sg1912
g2943
sg1914
V
p3092
sg1916
Nsg1822
g0
(g1823
g1824
((lp3093
(lp3094
tp3095
tp3096
Rp3097
sg1830
I0
sg1922
Nsg1831
I01
sg1833
Nsg1923
F1.2
sg60
g179
sg1924
I00
sg1925
I00
sg1789
Nsg1926
g1927
sg1928
g2950
sg1780
Nsbsg1743
I01
sg1768
Nsg2206
I00
sg1770
Nsg1771
Nsg1760
Nsg2207
I00
sg1774
I00
sg1775
I00
sg1776
(dp3098
sg2209
(I0
I1
tp3099
sg1778
I00
sg2211
F2.01
sg1839
g7
sg2212
I01
sg1808
g1021
sg1838
Nsg2213
g3085
sg2214
g0
(g1749
g2
Ntp3100
Rp3101
(dp3102
g1733
g59
sg1753
I01
sg1754
g1757
sg1759
Nsg1893
g0
(g1894
g2
Ntp3103
Rp3104
(dp3105
g1898
(lp3106
g1900
asg1901
Nsg1902
g1903
sg1904
g1903
sg1905
F10.0
sg1906
I400
sg1907
g1903
sbsg1788
Nsg1763
g1764
sg1908
Nsg1743
I01
sg1768
Nsg165
I0
sg166
I1
sg1770
Nsg1771
Nsg1760
Nsg1774
I00
sg1775
I00
sg1776
(dp3107
sg1910
Nsg1778
I00
sg1839
Nsg1808
Nsg1838
Nsg1911
Nsg1779
Nsg1815
Nsg1806
I01
sg1912
g2961
sg1914
V
p3108
sg1916
Nsg1822
g0
(g1823
g1824
((lp3109
(lp3110
tp3111
tp3112
Rp3113
sg1830
I0
sg1922
Nsg1831
I01
sg1833
Nsg1923
F1.2
sg60
g215
sg1924
I00
sg1925
I00
sg1789
Nsg1926
g1927
sg1928
g2968
sg1780
Nsbsg1815
Nsg2231
I0
sg1806
I01
sg1822
g0
(g1823
g1824
((lp3114
(lp3115
tp3116
tp3117
Rp3118
sg2237
F7.0
sg2238
g0
(g2239
g2
Ntp3119
Rp3120
(dp3121
g1733
g59
sg2243
g2244
sg2245
Nsg1743
I01
sg2246
Nsg2247
I0
sg165
Nsg166
Nsg1770
Nsg1760
Nsg1775
I00
sg1776
(dp3122
sg1778
I00
sg1839
Nsg2249
F1.0
sg2250
Nsg2251
g2252
sg2253
g2254
sg1815
Nsg1806
I01
sg2255
g2978
sg1830
I0
sg1831
I01
sg2257
I01
sg2258
I01
sg60
g163
sg2259
Nsg2260
F2.01
sg1926
g1927
sg2261
I5
sg1754
g1757
sg2262
Nsg1759
Nsg1788
Nsg1763
g1764
sg2263
g2264
sg1768
Nsg1771
Nsg1774
I00
sg2265
Nsg1780
Nsg2266
Nsg2267
g0
(g2268
g2
Ntp3123
Rp3124
(dp3125
g2267
I0
sg2272
Nsg2273
F1.0
sg60
g0
(g139
g2
Ntp3126
Rp3127
(dp3128
g14
I2
sg84
Nsg83
g26
(g27
(I0
tp3129
g29
tp3130
Rp3131
(I1
(L3L
L3L
tp3132
g36
I00
S'\x00\x00\x00\x00\x00\x00\xf0\xbf\x00\x00\x00\x00\x00\x00\x00\x00\x00\x00\x00\x00\x00\x00\x00\x00\x00\x00\x00\x00\x00\x00\x00\x00\x00\x00\x00\x00\x00\x00\xf0?\x00\x00\x00\x00\x00\x00\x00\x00\x00\x00\x00\x00\x00\x00\x00\x00\x00\x00\x00\x00\x00\x00\x00\x00\x00\x00\x00\x00\x00\x00\xf0?'
p3133
tp3134
bsg58
g59
sg41
(dp3135
sbsg2284
I00
sg2285
g2286
sg2287
Nsg1836
g2288
sg1818
g2289
sg2290
g2993
sbsg2308
g2309
sg1808
Nsg1779
Nsg1811
I01
sg2310
Nsg1820
g3001
sg1822
g0
(g1823
g1824
((lp3136
(lp3137
tp3138
tp3139
Rp3140
sg2317
I00
sg2318
g2319
sg2320
g2264
sg2321
Nsg1833
Nsg2322
g2264
sg2323
F0.0
sg1753
I01
sg2324
Nsg1789
Nsg1838
Nsg2325
(I0
tp3141
sg1807
F1.75
sg2290
Nsbsg1831
I00
sg2327
g0
(g2239
g2
Ntp3142
Rp3143
(dp3144
g1733
g59
sg1753
I01
sg2320
g2264
sg1754
g1757
sg2243
g2244
sg2245
Nsg1759
Nsg1788
Nsg1763
g1764
sg2263
g2264
sg1743
I01
sg2246
Nsg1768
Nsg165
g26
(g27
(I0
tp3145
g29
tp3146
Rp3147
(I1
(L2L
tp3148
g36
I00
S'\x00\x00\x00\x00\x00\x00\x00\x00\x00\x00\x00\x00\x00\x00\x00\x00'
p3149
tp3150
bsg166
g26
(g27
(I0
tp3151
g29
tp3152
Rp3153
(I1
(L2L
tp3154
g36
I00
S'\x00\x00\x00\x00\x00\x00\x00\x00\x00\x00\x00\x00\x00\x00\xf0?'
p3155
tp3156
bsg1770
Nsg1771
Nsg1760
Nsg2255
g3023
sg1774
I00
sg2265
Nsg1775
I00
sg1776
(dp3157
sg2262
Nsg1778
I00
sg2317
I00
sg1839
Nsg2266
Nsg2249
F0.0
sg2308
g2309
sg2250
Nsg1926
g1814
sg2267
g0
(g2268
g2
Ntp3158
Rp3159
(dp3160
g2267
g2348
sg2272
Nsg2273
Nsg60
g0
(g690
g2
Ntp3161
Rp3162
(dp3163
g14
I1
sg84
Nsg58
g59
sg41
(dp3164
sbsg2284
I00
sg2285
g2286
sg2287
Nsg1836
g2288
sg1818
g2289
sg2290
g0
(g2291
g2
Ntp3165
Rp3166
(dp3167
g2295
I00
sg2296
Nsg2297
g26
(g27
(I0
tp3168
g29
tp3169
Rp3170
(I1
(L0L
L2L
tp3171
g36
I00
g2360
tp3172
bsg2304
I00
sg2305
F0.1111111111111111
sg2306
I1
sg2307
I00
sbsbsg1779
Nsg2251
g2252
sg1811
I01
sg2253
g2254
sg1815
Nsg2323
F0.0
sg1806
I01
sg2310
g26
(g27
(I0
tp3173
g29
tp3174
Rp3175
(I1
(L2L
L2L
tp3176
g36
I00
S'\x00\x00\x00\x00\x00\x00\x00\x00\x00\x00\x00\x00\x00\x00\x00\x00\x00\x00\x00\x00\x00\x00\xf0?\x00\x00\x00\x00\x00\x00\x00\x00'
p3177
tp3178
bsg1820
g2368
sg1822
g0
(g1823
g1824
((lp3179
(lp3180
tp3181
tp3182
Rp3183
sg1830
I0
sg2318
g2319
sg2247
I0
sg2321
Nsg2261
I5
sg1831
I01
sg1833
F1.0
sg2322
g2264
sg2258
I00
sg60
g163
sg2324
Nsg2259
Nsg2257
I01
sg1789
Nsg1838
Nsg2325
(I0
tp3184
sg1808
g1535
sg1807
F1.0
sg1780
Nsg2290
g0
(g2291
g2
Ntp3185
Rp3186
(dp3187
g2295
I00
sg2296
Nsg2297
g3175
sg2304
I00
sg2305
F0.1111111111111111
sg2306
I180
sg2307
I00
sbsbsg1833
Nsg1779
Nsg2378
g0
(g2239
g2
Ntp3188
Rp3189
(dp3190
g1733
g59
sg2243
g2244
sg2245
Nsg1743
I01
sg2246
Nsg2247
I0
sg165
Nsg166
Nsg1770
Nsg1760
Nsg1775
I00
sg1776
(dp3191
sg1778
I00
sg1839
Nsg2249
F1.0
sg2250
Nsg2251
g2252
sg2253
g2254
sg1815
Nsg1806
I01
sg2255
g3059
sg1830
I0
sg1831
I01
sg2257
I01
sg2258
I01
sg60
g163
sg2259
Nsg2260
F2.01
sg1926
g1927
sg2261
I5
sg1754
g1757
sg2262
Nsg1759
Nsg1788
Nsg1763
g1764
sg2263
g2264
sg1768
Nsg1771
Nsg1774
I00
sg2265
Nsg1780
Nsg2266
Nsg2267
g0
(g2268
g2
Ntp3192
Rp3193
(dp3194
g2267
I1
sg2272
Nsg2273
F1.0
sg60
g0
(g139
g2
Ntp3195
Rp3196
(dp3197
g14
I2
sg84
Nsg83
g26
(g27
(I0
tp3198
g29
tp3199
Rp3200
(I1
(L3L
L3L
tp3201
g36
I00
S'\x00\x00\x00\x00\x00\x00\xf0?\x00\x00\x00\x00\x00\x00\x00\x00\x00\x00\x00\x00\x00\x00\x00\x00\x00\x00\x00\x00\x00\x00\x00\x00\x00\x00\x00\x00\x00\x00\xf0?\x00\x00\x00\x00\x00\x00\x00\x00\x00\x00\x00\x00\x00\x00\x00\x00\x00\x00\x00\x00\x00\x00\x00\x00\x00\x00\x00\x00\x00\x00\xf0?'
p3202
tp3203
bsg58
g59
sg41
(dp3204
sbsg2284
I00
sg2285
g2286
sg2287
Nsg1836
g2288
sg1818
g2289
sg2290
g2993
sbsg2308
g2309
sg1808
Nsg1779
Nsg1811
I01
sg2310
Nsg1820
g3073
sg1822
g0
(g1823
g1824
((lp3205
(lp3206
tp3207
tp3208
Rp3209
sg2317
I00
sg2318
g2319
sg2320
g2264
sg2321
Nsg1833
Nsg2322
g2264
sg2323
F0.0
sg1753
I01
sg2324
Nsg1789
Nsg1838
Nsg2325
(I0
tp3210
sg1807
F1.75
sg2290
Nsbsg60
Nsg2404
F10.0
sg2405
g3080
sg1789
Nsg1926
g1927
sg1780
Nsbasg2537
I01
sg1846
g0
(g1847
g2
Ntp3211
Rp3212
sg1815
Nsg1806
I01
sg2540
I01
sg1822
g0
(g1823
g1824
((lp3213
(lp3214
tp3215
tp3216
Rp3217
sg1830
I0
sg2546
I1
sg2547
Nsg1831
I00
sg1833
Nsg2548
g2899
sg60
Nsg2550
Vleft
p3218
sg1789
Nsg1838
Nsg2261
I15
sg2552
(lp3219
g0
(g2930
g2
Ntp3220
Rp3221
(dp3222
g1733
g59
sg1786
F0.5
sg1754
g1757
sg2184
I01
sg1753
I01
sg1759
Nsg1830
I0
sg1788
Nsg2185
F3.4
sg2186
g1927
sg2187
I00
sg1905
F0.0
sg1763
g1764
sg2188
g2934
sg2137
g0
(g1749
g2
Ntp3223
Rp3224
(dp3225
g1733
g59
sg1753
I01
sg1754
g1757
sg1759
Nsg1893
g0
(g1894
g2
Ntp3226
Rp3227
(dp3228
g1898
(lp3229
g1900
asg1901
Nsg1902
g1903
sg1904
g1903
sg1905
F10.0
sg1906
I400
sg1907
g1903
sbsg1788
Nsg1763
g1764
sg1908
Nsg1743
I01
sg1768
Nsg165
I0
sg166
I0
sg1770
Nsg1771
Nsg1760
Nsg1774
I00
sg1775
I00
sg1776
(dp3230
sg1910
Nsg1778
I00
sg1839
Nsg1808
Nsg1838
Nsg1911
Nsg1779
Nsg1815
Nsg1806
I01
sg1912
g2943
sg1914
V
p3231
sg1916
Nsg1822
g0
(g1823
g1824
((lp3232
(lp3233
tp3234
tp3235
Rp3236
sg1830
I0
sg1922
Nsg1831
I01
sg1833
Nsg1923
F1.2
sg60
g170
sg1924
I00
sg1925
I00
sg1789
Nsg1926
g1927
sg1928
g2950
sg1780
Nsbsg1743
I01
sg1768
Nsg2206
I00
sg1770
Nsg1771
Nsg1760
Nsg2207
I00
sg1774
I00
sg1775
I00
sg1776
(dp3237
sg2209
(I0
I1
tp3238
sg1778
I00
sg2211
I2
sg1839
g7
sg2212
I01
sg1808
g381
sg1838
Nsg2213
g3224
sg2214
g0
(g1749
g2
Ntp3239
Rp3240
(dp3241
g1733
g59
sg1753
I01
sg1754
g1757
sg1759
Nsg1893
g0
(g1894
g2
Ntp3242
Rp3243
(dp3244
g1898
(lp3245
g1900
asg1901
Nsg1902
g1903
sg1904
g1903
sg1905
F10.0
sg1906
I400
sg1907
g1903
sbsg1788
Nsg1763
g1764
sg1908
Nsg1743
I01
sg1768
Nsg165
I0
sg166
I1
sg1770
Nsg1771
Nsg1760
Nsg1774
I00
sg1775
I00
sg1776
(dp3246
sg1910
Nsg1778
I00
sg1839
Nsg1808
Nsg1838
Nsg1911
Nsg1779
Nsg1815
Nsg1806
I01
sg1912
g2961
sg1914
V
p3247
sg1916
Nsg1822
g0
(g1823
g1824
((lp3248
(lp3249
tp3250
tp3251
Rp3252
sg1830
I0
sg1922
Nsg1831
I01
sg1833
Nsg1923
F1.2
sg60
g224
sg1924
I00
sg1925
I00
sg1789
Nsg1926
g1927
sg1928
g2968
sg1780
Nsbsg1815
Nsg2231
I0
sg1806
I01
sg1822
g0
(g1823
g1824
((lp3253
(lp3254
tp3255
tp3256
Rp3257
sg2237
F3.4
sg2238
g0
(g2239
g2
Ntp3258
Rp3259
(dp3260
g1733
g59
sg2243
g2244
sg2245
Nsg1743
I01
sg2246
Nsg2247
I0
sg165
Nsg166
Nsg1770
Nsg1760
Nsg1775
I00
sg1776
(dp3261
sg1778
I00
sg1839
Nsg2249
F0.5
sg2250
Nsg2251
g2252
sg2253
g2254
sg1815
Nsg1806
I01
sg2255
g2978
sg1830
I0
sg1831
I01
sg2257
I01
sg2258
I01
sg60
g163
sg2259
Nsg2260
I2
sg1926
g1927
sg2261
I5
sg1754
g1757
sg2262
Nsg1759
Nsg1788
Nsg1763
g1764
sg2263
g2264
sg1768
Nsg1771
Nsg1774
I00
sg2265
Nsg1780
Nsg2266
Nsg2267
g0
(g2268
g2
Ntp3262
Rp3263
(dp3264
g2267
I0
sg2272
Nsg2273
F1.0
sg60
g0
(g139
g2
Ntp3265
Rp3266
(dp3267
g14
I2
sg84
Nsg83
g26
(g27
(I0
tp3268
g29
tp3269
Rp3270
(I1
(L3L
L3L
tp3271
g36
I00
S'\x00\x00\x00\x00\x00\x00\xf0\xbf\x00\x00\x00\x00\x00\x00\x00\x00\x00\x00\x00\x00\x00\x00\x00\x00\x00\x00\x00\x00\x00\x00\x00\x00\x00\x00\x00\x00\x00\x00\xf0?\x00\x00\x00\x00\x00\x00\x00\x00\x00\x00\x00\x00\x00\x00\x00\x00\x00\x00\x00\x00\x00\x00\x00\x00\x00\x00\x00\x00\x00\x00\xf0?'
p3272
tp3273
bsg58
g59
sg41
(dp3274
sbsg2284
I00
sg2285
g2286
sg2287
Nsg1836
g2288
sg1818
g2289
sg2290
g2993
sbsg2308
g2309
sg1808
Nsg1779
Nsg1811
I01
sg2310
Nsg1820
g3001
sg1822
g0
(g1823
g1824
((lp3275
(lp3276
tp3277
tp3278
Rp3279
sg2317
I00
sg2318
g2319
sg2320
g2264
sg2321
Nsg1833
Nsg2322
g2264
sg2323
F0.0
sg1753
I01
sg2324
Nsg1789
Nsg1838
Nsg2325
(I0
tp3280
sg1807
F1.75
sg2290
Nsbsg1831
I00
sg2327
g0
(g2239
g2
Ntp3281
Rp3282
(dp3283
g1733
g59
sg1753
I01
sg2320
g2264
sg1754
g1757
sg2243
g2244
sg2245
Nsg1759
Nsg1788
Nsg1763
g1764
sg2263
g2264
sg1743
I01
sg2246
Nsg1768
Nsg165
g26
(g27
(I0
tp3284
g29
tp3285
Rp3286
(I1
(L2L
tp3287
g36
I00
S'\x00\x00\x00\x00\x00\x00\x00\x00\x00\x00\x00\x00\x00\x00\x00\x00'
p3288
tp3289
bsg166
g26
(g27
(I0
tp3290
g29
tp3291
Rp3292
(I1
(L2L
tp3293
g36
I00
S'\x00\x00\x00\x00\x00\x00\x00\x00\x00\x00\x00\x00\x00\x00\xf0?'
p3294
tp3295
bsg1770
Nsg1771
Nsg1760
Nsg2255
g3023
sg1774
I00
sg2265
Nsg1775
I00
sg1776
(dp3296
sg2262
Nsg1778
I00
sg2317
I00
sg1839
Nsg2266
Nsg2249
F0.0
sg2308
g2309
sg2250
Nsg1926
g1814
sg2267
g0
(g2268
g2
Ntp3297
Rp3298
(dp3299
g2267
g2348
sg2272
Nsg2273
Nsg60
g0
(g690
g2
Ntp3300
Rp3301
(dp3302
g14
I1
sg84
Nsg58
g59
sg41
(dp3303
sbsg2284
I00
sg2285
g2286
sg2287
Nsg1836
g2288
sg1818
g2289
sg2290
g0
(g2291
g2
Ntp3304
Rp3305
(dp3306
g2295
I00
sg2296
Nsg2297
g26
(g27
(I0
tp3307
g29
tp3308
Rp3309
(I1
(L0L
L2L
tp3310
g36
I00
g2360
tp3311
bsg2304
I00
sg2305
F0.1111111111111111
sg2306
I1
sg2307
I00
sbsbsg1779
Nsg2251
g2252
sg1811
I01
sg2253
g2254
sg1815
Nsg2323
F0.0
sg1806
I01
sg2310
g26
(g27
(I0
tp3312
g29
tp3313
Rp3314
(I1
(L2L
L2L
tp3315
g36
I00
S'\x00\x00\x00\x00\x00\x00\x00\x00\x00\x00\x00\x00\x00\x00\x00\x00\x00\x00\x00\x00\x00\x00\xf0?\x00\x00\x00\x00\x00\x00\x00\x00'
p3316
tp3317
bsg1820
g2368
sg1822
g0
(g1823
g1824
((lp3318
(lp3319
tp3320
tp3321
Rp3322
sg1830
I0
sg2318
g2319
sg2247
I0
sg2321
Nsg2261
I5
sg1831
I01
sg1833
F1.0
sg2322
g2264
sg2258
I00
sg60
g163
sg2324
Nsg2259
Nsg2257
I00
sg1789
Nsg1838
Nsg2325
(I0
I0
tp3323
sg1808
g1247
sg1807
F1.0
sg1780
Nsg2290
g0
(g2291
g2
Ntp3324
Rp3325
(dp3326
g2295
I00
sg2296
Nsg2297
g3314
sg2304
I00
sg2305
F0.1111111111111111
sg2306
I180
sg2307
I00
sbsbsg1833
Nsg1779
Nsg2378
g0
(g2239
g2
Ntp3327
Rp3328
(dp3329
g1733
g59
sg2243
g2244
sg2245
Nsg1743
I01
sg2246
Nsg2247
I0
sg165
Nsg166
Nsg1770
Nsg1760
Nsg1775
I00
sg1776
(dp3330
sg1778
I00
sg1839
Nsg2249
F0.5
sg2250
Nsg2251
g2252
sg2253
g2254
sg1815
Nsg1806
I01
sg2255
g3059
sg1830
I0
sg1831
I01
sg2257
I01
sg2258
I01
sg60
g163
sg2259
Nsg2260
I2
sg1926
g1927
sg2261
I5
sg1754
g1757
sg2262
Nsg1759
Nsg1788
Nsg1763
g1764
sg2263
g2264
sg1768
Nsg1771
Nsg1774
I00
sg2265
Nsg1780
Nsg2266
Nsg2267
g0
(g2268
g2
Ntp3331
Rp3332
(dp3333
g2267
I1
sg2272
Nsg2273
F1.0
sg60
g0
(g139
g2
Ntp3334
Rp3335
(dp3336
g14
I2
sg84
Nsg83
g26
(g27
(I0
tp3337
g29
tp3338
Rp3339
(I1
(L3L
L3L
tp3340
g36
I00
S'\x00\x00\x00\x00\x00\x00\xf0?\x00\x00\x00\x00\x00\x00\x00\x00\x00\x00\x00\x00\x00\x00\x00\x00\x00\x00\x00\x00\x00\x00\x00\x00\x00\x00\x00\x00\x00\x00\xf0?\x00\x00\x00\x00\x00\x00\x00\x00\x00\x00\x00\x00\x00\x00\x00\x00\x00\x00\x00\x00\x00\x00\x00\x00\x00\x00\x00\x00\x00\x00\xf0?'
p3341
tp3342
bsg58
g59
sg41
(dp3343
sbsg2284
I00
sg2285
g2286
sg2287
Nsg1836
g2288
sg1818
g2289
sg2290
g2993
sbsg2308
g2309
sg1808
Nsg1779
Nsg1811
I01
sg2310
Nsg1820
g3073
sg1822
g0
(g1823
g1824
((lp3344
(lp3345
tp3346
tp3347
Rp3348
sg2317
I00
sg2318
g2319
sg2320
g2264
sg2321
Nsg1833
Nsg2322
g2264
sg2323
F0.0
sg1753
I01
sg2324
Nsg1789
Nsg1838
Nsg2325
(I0
tp3349
sg1807
F1.75
sg2290
Nsbsg60
Nsg2404
F10.0
sg2405
g3080
sg1789
Nsg1926
g1927
sg1780
Nsbag0
(g2930
g2
Ntp3350
Rp3351
(dp3352
g1733
g59
sg1786
F0.5
sg1754
g1757
sg2184
I01
sg1753
I01
sg1759
Nsg1830
I0
sg1788
Nsg2185
F3.4
sg2186
g1927
sg2187
I00
sg1905
F0.0
sg1763
g1764
sg2188
g2934
sg2137
g0
(g1749
g2
Ntp3353
Rp3354
(dp3355
g1733
g59
sg1753
I01
sg1754
g1757
sg1759
Nsg1893
g0
(g1894
g2
Ntp3356
Rp3357
(dp3358
g1898
(lp3359
g1900
asg1901
Nsg1902
g1903
sg1904
g1903
sg1905
F10.0
sg1906
I400
sg1907
g1903
sbsg1788
Nsg1763
g1764
sg1908
Nsg1743
I01
sg1768
Nsg165
I0
sg166
I0
sg1770
Nsg1771
Nsg1760
Nsg1774
I00
sg1775
I00
sg1776
(dp3360
sg1910
Nsg1778
I00
sg1839
Nsg1808
Nsg1838
Nsg1911
Nsg1779
Nsg1815
Nsg1806
I01
sg1912
g2943
sg1914
V
p3361
sg1916
Nsg1822
g0
(g1823
g1824
((lp3362
(lp3363
tp3364
tp3365
Rp3366
sg1830
I0
sg1922
Nsg1831
I01
sg1833
Nsg1923
F1.2
sg60
g206
sg1924
I00
sg1925
I00
sg1789
Nsg1926
g1927
sg1928
g2950
sg1780
Nsbsg1743
I01
sg1768
Nsg2206
I00
sg1770
Nsg1771
Nsg1760
Nsg2207
I00
sg1774
I00
sg1775
I00
sg1776
(dp3367
sg2209
(I0
I1
tp3368
sg1778
I00
sg2211
I2
sg1839
g7
sg2212
I01
sg1808
g1099
sg1838
Nsg2213
g3354
sg2214
g0
(g1749
g2
Ntp3369
Rp3370
(dp3371
g1733
g59
sg1753
I01
sg1754
g1757
sg1759
Nsg1893
g0
(g1894
g2
Ntp3372
Rp3373
(dp3374
g1898
(lp3375
g1900
asg1901
Nsg1902
g1903
sg1904
g1903
sg1905
F10.0
sg1906
I400
sg1907
g1903
sbsg1788
Nsg1763
g1764
sg1908
Nsg1743
I01
sg1768
Nsg165
I0
sg166
I1
sg1770
Nsg1771
Nsg1760
Nsg1774
I00
sg1775
I00
sg1776
(dp3376
sg1910
Nsg1778
I00
sg1839
Nsg1808
Nsg1838
Nsg1911
Nsg1779
Nsg1815
Nsg1806
I01
sg1912
g2961
sg1914
V
p3377
sg1916
Nsg1822
g0
(g1823
g1824
((lp3378
(lp3379
tp3380
tp3381
Rp3382
sg1830
I0
sg1922
Nsg1831
I01
sg1833
Nsg1923
F1.2
sg60
g197
sg1924
I00
sg1925
I00
sg1789
Nsg1926
g1927
sg1928
g2968
sg1780
Nsbsg1815
Nsg2231
I0
sg1806
I01
sg1822
g0
(g1823
g1824
((lp3383
(lp3384
tp3385
tp3386
Rp3387
sg2237
F3.4
sg2238
g0
(g2239
g2
Ntp3388
Rp3389
(dp3390
g1733
g59
sg2243
g2244
sg2245
Nsg1743
I01
sg2246
Nsg2247
I0
sg165
Nsg166
Nsg1770
Nsg1760
Nsg1775
I00
sg1776
(dp3391
sg1778
I00
sg1839
Nsg2249
F0.5
sg2250
Nsg2251
g2252
sg2253
g2254
sg1815
Nsg1806
I01
sg2255
g2978
sg1830
I0
sg1831
I01
sg2257
I01
sg2258
I01
sg60
g163
sg2259
Nsg2260
I2
sg1926
g1927
sg2261
I5
sg1754
g1757
sg2262
Nsg1759
Nsg1788
Nsg1763
g1764
sg2263
g2264
sg1768
Nsg1771
Nsg1774
I00
sg2265
Nsg1780
Nsg2266
Nsg2267
g0
(g2268
g2
Ntp3392
Rp3393
(dp3394
g2267
I0
sg2272
Nsg2273
F1.0
sg60
g0
(g139
g2
Ntp3395
Rp3396
(dp3397
g14
I2
sg84
Nsg83
g26
(g27
(I0
tp3398
g29
tp3399
Rp3400
(I1
(L3L
L3L
tp3401
g36
I00
S'\x00\x00\x00\x00\x00\x00\xf0\xbf\x00\x00\x00\x00\x00\x00\x00\x00\x00\x00\x00\x00\x00\x00\x00\x00\x00\x00\x00\x00\x00\x00\x00\x00\x00\x00\x00\x00\x00\x00\xf0?\x00\x00\x00\x00\x00\x00\x00\x00\x00\x00\x00\x00\x00\x00\x00\x00\x00\x00\x00\x00\x00\x00\x00\x00\x00\x00\x00\x00\x00\x00\xf0?'
p3402
tp3403
bsg58
g59
sg41
(dp3404
sbsg2284
I00
sg2285
g2286
sg2287
Nsg1836
g2288
sg1818
g2289
sg2290
g2993
sbsg2308
g2309
sg1808
Nsg1779
Nsg1811
I01
sg2310
Nsg1820
g3001
sg1822
g0
(g1823
g1824
((lp3405
(lp3406
tp3407
tp3408
Rp3409
sg2317
I00
sg2318
g2319
sg2320
g2264
sg2321
Nsg1833
Nsg2322
g2264
sg2323
F0.0
sg1753
I01
sg2324
Nsg1789
Nsg1838
Nsg2325
(I0
tp3410
sg1807
F1.75
sg2290
Nsbsg1831
I00
sg2327
g0
(g2239
g2
Ntp3411
Rp3412
(dp3413
g1733
g59
sg1753
I01
sg2320
g2264
sg1754
g1757
sg2243
g2244
sg2245
Nsg1759
Nsg1788
Nsg1763
g1764
sg2263
g2264
sg1743
I01
sg2246
Nsg1768
Nsg165
g26
(g27
(I0
tp3414
g29
tp3415
Rp3416
(I1
(L2L
tp3417
g36
I00
S'\x00\x00\x00\x00\x00\x00\x00\x00\x00\x00\x00\x00\x00\x00\x00\x00'
p3418
tp3419
bsg166
g26
(g27
(I0
tp3420
g29
tp3421
Rp3422
(I1
(L2L
tp3423
g36
I00
S'\x00\x00\x00\x00\x00\x00\x00\x00\x00\x00\x00\x00\x00\x00\xf0?'
p3424
tp3425
bsg1770
Nsg1771
Nsg1760
Nsg2255
g3023
sg1774
I00
sg2265
Nsg1775
I00
sg1776
(dp3426
sg2262
Nsg1778
I00
sg2317
I00
sg1839
Nsg2266
Nsg2249
F0.0
sg2308
g2309
sg2250
Nsg1926
g1814
sg2267
g0
(g2268
g2
Ntp3427
Rp3428
(dp3429
g2267
g2348
sg2272
Nsg2273
Nsg60
g0
(g690
g2
Ntp3430
Rp3431
(dp3432
g14
I1
sg84
Nsg58
g59
sg41
(dp3433
sbsg2284
I00
sg2285
g2286
sg2287
Nsg1836
g2288
sg1818
g2289
sg2290
g0
(g2291
g2
Ntp3434
Rp3435
(dp3436
g2295
I00
sg2296
Nsg2297
g26
(g27
(I0
tp3437
g29
tp3438
Rp3439
(I1
(L0L
L2L
tp3440
g36
I00
g2360
tp3441
bsg2304
I00
sg2305
F0.1111111111111111
sg2306
I1
sg2307
I00
sbsbsg1779
Nsg2251
g2252
sg1811
I01
sg2253
g2254
sg1815
Nsg2323
F0.0
sg1806
I01
sg2310
g26
(g27
(I0
tp3442
g29
tp3443
Rp3444
(I1
(L2L
L2L
tp3445
g36
I00
S'\x00\x00\x00\x00\x00\x00\x00\x00\x00\x00\x00\x00\x00\x00\x00\x00\x00\x00\x00\x00\x00\x00\xf0?\x00\x00\x00\x00\x00\x00\x00\x00'
p3446
tp3447
bsg1820
g2368
sg1822
g0
(g1823
g1824
((lp3448
(lp3449
tp3450
tp3451
Rp3452
sg1830
I0
sg2318
g2319
sg2247
I0
sg2321
Nsg2261
I5
sg1831
I01
sg1833
F1.0
sg2322
g2264
sg2258
I00
sg60
g163
sg2324
Nsg2259
Nsg2257
I00
sg1789
Nsg1838
Nsg2325
g3323
sg1808
g1465
sg1807
F1.0
sg1780
Nsg2290
g0
(g2291
g2
Ntp3453
Rp3454
(dp3455
g2295
I00
sg2296
Nsg2297
g3444
sg2304
I00
sg2305
F0.1111111111111111
sg2306
I180
sg2307
I00
sbsbsg1833
Nsg1779
Nsg2378
g0
(g2239
g2
Ntp3456
Rp3457
(dp3458
g1733
g59
sg2243
g2244
sg2245
Nsg1743
I01
sg2246
Nsg2247
I0
sg165
Nsg166
Nsg1770
Nsg1760
Nsg1775
I00
sg1776
(dp3459
sg1778
I00
sg1839
Nsg2249
F0.5
sg2250
Nsg2251
g2252
sg2253
g2254
sg1815
Nsg1806
I01
sg2255
g3059
sg1830
I0
sg1831
I01
sg2257
I01
sg2258
I01
sg60
g163
sg2259
Nsg2260
I2
sg1926
g1927
sg2261
I5
sg1754
g1757
sg2262
Nsg1759
Nsg1788
Nsg1763
g1764
sg2263
g2264
sg1768
Nsg1771
Nsg1774
I00
sg2265
Nsg1780
Nsg2266
Nsg2267
g0
(g2268
g2
Ntp3460
Rp3461
(dp3462
g2267
I1
sg2272
Nsg2273
F1.0
sg60
g0
(g139
g2
Ntp3463
Rp3464
(dp3465
g14
I2
sg84
Nsg83
g26
(g27
(I0
tp3466
g29
tp3467
Rp3468
(I1
(L3L
L3L
tp3469
g36
I00
S'\x00\x00\x00\x00\x00\x00\xf0?\x00\x00\x00\x00\x00\x00\x00\x00\x00\x00\x00\x00\x00\x00\x00\x00\x00\x00\x00\x00\x00\x00\x00\x00\x00\x00\x00\x00\x00\x00\xf0?\x00\x00\x00\x00\x00\x00\x00\x00\x00\x00\x00\x00\x00\x00\x00\x00\x00\x00\x00\x00\x00\x00\x00\x00\x00\x00\x00\x00\x00\x00\xf0?'
p3470
tp3471
bsg58
g59
sg41
(dp3472
sbsg2284
I00
sg2285
g2286
sg2287
Nsg1836
g2288
sg1818
g2289
sg2290
g2993
sbsg2308
g2309
sg1808
Nsg1779
Nsg1811
I01
sg2310
Nsg1820
g3073
sg1822
g0
(g1823
g1824
((lp3473
(lp3474
tp3475
tp3476
Rp3477
sg2317
I00
sg2318
g2319
sg2320
g2264
sg2321
Nsg1833
Nsg2322
g2264
sg2323
F0.0
sg1753
I01
sg2324
Nsg1789
Nsg1838
Nsg2325
(I0
tp3478
sg1807
F1.75
sg2290
Nsbsg60
Nsg2404
F10.0
sg2405
g3080
sg1789
Nsg1926
g1927
sg1780
Nsbasg1780
Nsg2813
(dp3479
g2171
I01
sg2173
I00
ssg2815
I01
sbsS'_axisbelow'
p3480
I01
sg1753
I01
sg1875
(lp3481
g0
(g2239
g2
Ntp3482
Rp3483
(dp3484
g1733
V_line0
p3485
sg1732
I2
sg2243
g2244
sg2245
Nsg1743
I01
sg2246
Nsg2247
I0
sg165
g26
(g27
(I0
tp3486
g29
tp3487
Rp3488
(I1
(L50L
tp3489
g36
I00
S'\x00\x00\x00\x00\x00\x00\xf0?\xd7\x9e\x1a\xc9S\x9f\xf3?\xa8\xea\x92\x90\x99\x10\xf8?\xa7[PVY\x83\xfd?\xf0\xe3M\xf5\xee\x18\x02@R#\xc1N\xd21\x06@\x14\xc1\xdd\x10-8\x0b@\r\xdc\xb3&\xe1\xb0\x10@\x07\xfb\xbf\x82@x\x14@5\xadn\xcd\xa2\x1a\x19@\xec\xd4\x81{\x9d\xc9\x1e@\xb2=?\xe4\xff\xe0"@n\xb5p\xaa.\'\'@hkh\x08\x16e,@\xe4}\x1b\xb3ei1@\x8c\x1d\xedT\x8bZ5@sM\x8d\x0f)0:@s\xf7\xbf>\xfc\x0e@@\xa3\x07\xc7\x8c\xb4\xb1C@\xa9\x1d\xc5z#\'H@\x04\x04\xfa\x8c\xfd\x9eM@!\xdf\x11\x16\xe2)R@\xa8\xbd\x81\xce\x9bFV@\xf8\x8e\xd2W\xabQ[@\x18\x85\x05\x0f\x83\xc0`@c\x00rql\x8bd@\xae\xfa\xda\xe1%2i@\xf4\xe4|Es\xe6n@i\xa1\xefe\xae\xf2r@"s2\xf7\xdd<w@w.\'#\xae\x7f|@rLcl\xb4y\x81@\xa5\xf5\xa84\x8bn\x85@\x13q\xb6\x10\xb0H\x8a@mxv\x86\x06\x1e\x90@\x9d\xc4\xda\x86&\xc4\x93@\x02\xca\xf8\x80\xc2=\x98@\xbaE\x1a\xa7\xbb\xba\x9d@]C\xca\x16\xe5:\xa2@\xd0BI\xc6x[\xa6@\xcdK.\x7fAk\xab@\x8f\xcfu\x9b3\xd0\xb0@:\x01\xd4T\xaa\x9e\xb4@\x9d\xde\xa5\xfb\xbeI\xb9@E\xf4 \x11d\x03\xbf@qR\x13wm\x04\xc3@\xc2^5\x93\xa1R\xc7@ JA&_\x9a\xcc@\xb4\x14\xa5k\x12\x8a\xd1@`\x05\x95\xcf\x9d\x82\xd5@'
p3490
tp3491
bsg166
g26
(g27
(I0
tp3492
g29
tp3493
Rp3494
(I1
(L50L
tp3495
g36
I00
S'\x00\x00\x00\x00\x00\x00\x00\x00\x88\xc6\xfa\xd0X\x1f\xca?\x88\xc6\xfa\xd0X\x1f\xda?\xe6\x14\xbc\x9c\x82\x97\xe3?\x88\xc6\xfa\xd0X\x1f\xea?\x15\xbc\x9c\x82\x97S\xf0?\xe6\x14\xbc\x9c\x82\x97\xf3?\xb7m\xdb\xb6m\xdb\xf6?\x88\xc6\xfa\xd0X\x1f\xfa?Y\x1f\x1a\xebCc\xfd?\x15\xbc\x9c\x82\x97S\x00@~h\xac\x0f\x8d\xf5\x01@\xe6\x14\xbc\x9c\x82\x97\x03@N\xc1\xcb)x9\x05@\xb7m\xdb\xb6m\xdb\x06@ \x1a\xebCc}\x08@\x88\xc6\xfa\xd0X\x1f\n@\xf0r\n^N\xc1\x0b@Y\x1f\x1a\xebCc\r@\xc2\xcb)x9\x05\x0f@\x15\xbc\x9c\x82\x97S\x10@I\x92$I\x92$\x11@~h\xac\x0f\x8d\xf5\x11@\xb2>4\xd6\x87\xc6\x12@\xe6\x14\xbc\x9c\x82\x97\x13@\x1a\xebCc}h\x14@N\xc1\xcb)x9\x15@\x83\x97S\xf0r\n\x16@\xb7m\xdb\xb6m\xdb\x16@\xebCc}h\xac\x17@ \x1a\xebCc}\x18@T\xf0r\n^N\x19@\x88\xc6\xfa\xd0X\x1f\x1a@\xbc\x9c\x82\x97S\xf0\x1a@\xf0r\n^N\xc1\x1b@%I\x92$I\x92\x1c@Y\x1f\x1a\xebCc\x1d@\x8d\xf5\xa1\xb1>4\x1e@\xc2\xcb)x9\x05\x1f@\xf6\xa1\xb1>4\xd6\x1f@\x15\xbc\x9c\x82\x97S @/\xa7\xe0\xe5\x14\xbc @I\x92$I\x92$!@c}h\xac\x0f\x8d!@~h\xac\x0f\x8d\xf5!@\x98S\xf0r\n^"@\xb2>4\xd6\x87\xc6"@\xcc)x9\x05/#@\xe6\x14\xbc\x9c\x82\x97#@\x00\x00\x00\x00\x00\x00$@'
p3496
tp3497
bsg1770
Nsg1760
Nsg1775
I00
sg1776
(dp3498
sg1778
I00
sg1839
g7
sg2249
F0.0
sg2250
Nsg2251
g2252
sg2253
g2254
sg1815
Nsg1806
I01
sg2255
g26
(g27
(I0
tp3499
g29
tp3500
Rp3501
(I1
(L50L
tp3502
g36
I00
S'\x00\x00\x00\x00\x00\x00\x00\x00\x88\xc6\xfa\xd0X\x1f\xca?\x88\xc6\xfa\xd0X\x1f\xda?\xe6\x14\xbc\x9c\x82\x97\xe3?\x88\xc6\xfa\xd0X\x1f\xea?\x15\xbc\x9c\x82\x97S\xf0?\xe6\x14\xbc\x9c\x82\x97\xf3?\xb7m\xdb\xb6m\xdb\xf6?\x88\xc6\xfa\xd0X\x1f\xfa?Y\x1f\x1a\xebCc\xfd?\x15\xbc\x9c\x82\x97S\x00@~h\xac\x0f\x8d\xf5\x01@\xe6\x14\xbc\x9c\x82\x97\x03@N\xc1\xcb)x9\x05@\xb7m\xdb\xb6m\xdb\x06@ \x1a\xebCc}\x08@\x88\xc6\xfa\xd0X\x1f\n@\xf0r\n^N\xc1\x0b@Y\x1f\x1a\xebCc\r@\xc2\xcb)x9\x05\x0f@\x15\xbc\x9c\x82\x97S\x10@I\x92$I\x92$\x11@~h\xac\x0f\x8d\xf5\x11@\xb2>4\xd6\x87\xc6\x12@\xe6\x14\xbc\x9c\x82\x97\x13@\x1a\xebCc}h\x14@N\xc1\xcb)x9\x15@\x83\x97S\xf0r\n\x16@\xb7m\xdb\xb6m\xdb\x16@\xebCc}h\xac\x17@ \x1a\xebCc}\x18@T\xf0r\n^N\x19@\x88\xc6\xfa\xd0X\x1f\x1a@\xbc\x9c\x82\x97S\xf0\x1a@\xf0r\n^N\xc1\x1b@%I\x92$I\x92\x1c@Y\x1f\x1a\xebCc\x1d@\x8d\xf5\xa1\xb1>4\x1e@\xc2\xcb)x9\x05\x1f@\xf6\xa1\xb1>4\xd6\x1f@\x15\xbc\x9c\x82\x97S @/\xa7\xe0\xe5\x14\xbc @I\x92$I\x92$!@c}h\xac\x0f\x8d!@~h\xac\x0f\x8d\xf5!@\x98S\xf0r\n^"@\xb2>4\xd6\x87\xc6"@\xcc)x9\x05/#@\xe6\x14\xbc\x9c\x82\x97#@\x00\x00\x00\x00\x00\x00$@'
p3503
tp3504
bsg1830
I0
sg1831
I01
sg2257
I00
sg2258
I00
sg60
g70
sg2259
Nsg1926
(F0.2980392156862745
F0.4470588235294118
F0.6901960784313725
tp3505
sg2261
I5
sg1754
g1757
sg2262
Nsg1759
Nsg2324
Nsg1788
Nsg1763
g1764
sg2263
g2264
sg1768
Nsg1771
Nsg1774
I00
sg2265
Nsg1780
Nsg2266
Nsg2267
g0
(g2268
g2
Ntp3506
Rp3507
(dp3508
g2267
g2348
sg2272
Nsg2273
Nsg60
g0
(g690
g2
Ntp3509
Rp3510
(dp3511
g14
I1
sg84
Nsg58
g59
sg41
(dp3512
sbsg2284
I00
sg2285
g2286
sg2287
Nsg1836
g2288
sg1818
g2289
sg2290
g0
(g2291
g2
Ntp3513
Rp3514
(dp3515
g2295
I00
sg2296
Nsg2297
g26
(g27
(I0
tp3516
g29
tp3517
Rp3518
(I1
(L0L
L2L
tp3519
g36
I00
g2360
tp3520
bsg2304
I00
sg2305
F0.1111111111111111
sg2306
I1
sg2307
I00
sbsbsg2308
g2309
sg1808
g811
sg1779
Nsg1811
I01
sg2310
g26
(g27
(I0
tp3521
g29
tp3522
Rp3523
(I1
(L50L
L2L
tp3524
g36
I00
S'\x00\x00\x00\x00\x00\x00\x00\x00\x00\x00\x00\x00\x00\x00\xf0?\x88\xc6\xfa\xd0X\x1f\xca?\xd7\x9e\x1a\xc9S\x9f\xf3?\x88\xc6\xfa\xd0X\x1f\xda?\xa8\xea\x92\x90\x99\x10\xf8?\xe6\x14\xbc\x9c\x82\x97\xe3?\xa7[PVY\x83\xfd?\x88\xc6\xfa\xd0X\x1f\xea?\xf0\xe3M\xf5\xee\x18\x02@\x15\xbc\x9c\x82\x97S\xf0?R#\xc1N\xd21\x06@\xe6\x14\xbc\x9c\x82\x97\xf3?\x14\xc1\xdd\x10-8\x0b@\xb7m\xdb\xb6m\xdb\xf6?\r\xdc\xb3&\xe1\xb0\x10@\x88\xc6\xfa\xd0X\x1f\xfa?\x07\xfb\xbf\x82@x\x14@Y\x1f\x1a\xebCc\xfd?5\xadn\xcd\xa2\x1a\x19@\x15\xbc\x9c\x82\x97S\x00@\xec\xd4\x81{\x9d\xc9\x1e@~h\xac\x0f\x8d\xf5\x01@\xb2=?\xe4\xff\xe0"@\xe6\x14\xbc\x9c\x82\x97\x03@n\xb5p\xaa.\'\'@N\xc1\xcb)x9\x05@hkh\x08\x16e,@\xb7m\xdb\xb6m\xdb\x06@\xe4}\x1b\xb3ei1@ \x1a\xebCc}\x08@\x8c\x1d\xedT\x8bZ5@\x88\xc6\xfa\xd0X\x1f\n@sM\x8d\x0f)0:@\xf0r\n^N\xc1\x0b@s\xf7\xbf>\xfc\x0e@@Y\x1f\x1a\xebCc\r@\xa3\x07\xc7\x8c\xb4\xb1C@\xc2\xcb)x9\x05\x0f@\xa9\x1d\xc5z#\'H@\x15\xbc\x9c\x82\x97S\x10@\x04\x04\xfa\x8c\xfd\x9eM@I\x92$I\x92$\x11@!\xdf\x11\x16\xe2)R@~h\xac\x0f\x8d\xf5\x11@\xa8\xbd\x81\xce\x9bFV@\xb2>4\xd6\x87\xc6\x12@\xf8\x8e\xd2W\xabQ[@\xe6\x14\xbc\x9c\x82\x97\x13@\x18\x85\x05\x0f\x83\xc0`@\x1a\xebCc}h\x14@c\x00rql\x8bd@N\xc1\xcb)x9\x15@\xae\xfa\xda\xe1%2i@\x83\x97S\xf0r\n\x16@\xf4\xe4|Es\xe6n@\xb7m\xdb\xb6m\xdb\x16@i\xa1\xefe\xae\xf2r@\xebCc}h\xac\x17@"s2\xf7\xdd<w@ \x1a\xebCc}\x18@w.\'#\xae\x7f|@T\xf0r\n^N\x19@rLcl\xb4y\x81@\x88\xc6\xfa\xd0X\x1f\x1a@\xa5\xf5\xa84\x8bn\x85@\xbc\x9c\x82\x97S\xf0\x1a@\x13q\xb6\x10\xb0H\x8a@\xf0r\n^N\xc1\x1b@mxv\x86\x06\x1e\x90@%I\x92$I\x92\x1c@\x9d\xc4\xda\x86&\xc4\x93@Y\x1f\x1a\xebCc\x1d@\x02\xca\xf8\x80\xc2=\x98@\x8d\xf5\xa1\xb1>4\x1e@\xbaE\x1a\xa7\xbb\xba\x9d@\xc2\xcb)x9\x05\x1f@]C\xca\x16\xe5:\xa2@\xf6\xa1\xb1>4\xd6\x1f@\xd0BI\xc6x[\xa6@\x15\xbc\x9c\x82\x97S @\xcdK.\x7fAk\xab@/\xa7\xe0\xe5\x14\xbc @\x8f\xcfu\x9b3\xd0\xb0@I\x92$I\x92$!@:\x01\xd4T\xaa\x9e\xb4@c}h\xac\x0f\x8d!@\x9d\xde\xa5\xfb\xbeI\xb9@~h\xac\x0f\x8d\xf5!@E\xf4 \x11d\x03\xbf@\x98S\xf0r\n^"@qR\x13wm\x04\xc3@\xb2>4\xd6\x87\xc6"@\xc2^5\x93\xa1R\xc7@\xcc)x9\x05/#@ JA&_\x9a\xcc@\xe6\x14\xbc\x9c\x82\x97#@\xb4\x14\xa5k\x12\x8a\xd1@\x00\x00\x00\x00\x00\x00$@`\x05\x95\xcf\x9d\x82\xd5@'
p3525
tp3526
bsg1820
V-
p3527
sg1822
g0
(g1823
g1824
((lp3528
(lp3529
tp3530
tp3531
Rp3532
sg2317
I00
sg2318
g2319
sg2320
g2264
sg2321
Nsg1833
Nsg2322
g2264
sg2323
F7.0
sg1753
I01
sS'_ycid'
p3533
I2
sg1789
Nsg1838
Nsg2325
g26
(g27
(I0
tp3534
g29
tp3535
Rp3536
(I1
(L50L
tp3537
g36
I00
S'\x00\x00\x00\x00\x00\x00\xf0?\xd7\x9e\x1a\xc9S\x9f\xf3?\xa8\xea\x92\x90\x99\x10\xf8?\xa7[PVY\x83\xfd?\xf0\xe3M\xf5\xee\x18\x02@R#\xc1N\xd21\x06@\x14\xc1\xdd\x10-8\x0b@\r\xdc\xb3&\xe1\xb0\x10@\x07\xfb\xbf\x82@x\x14@5\xadn\xcd\xa2\x1a\x19@\xec\xd4\x81{\x9d\xc9\x1e@\xb2=?\xe4\xff\xe0"@n\xb5p\xaa.\'\'@hkh\x08\x16e,@\xe4}\x1b\xb3ei1@\x8c\x1d\xedT\x8bZ5@sM\x8d\x0f)0:@s\xf7\xbf>\xfc\x0e@@\xa3\x07\xc7\x8c\xb4\xb1C@\xa9\x1d\xc5z#\'H@\x04\x04\xfa\x8c\xfd\x9eM@!\xdf\x11\x16\xe2)R@\xa8\xbd\x81\xce\x9bFV@\xf8\x8e\xd2W\xabQ[@\x18\x85\x05\x0f\x83\xc0`@c\x00rql\x8bd@\xae\xfa\xda\xe1%2i@\xf4\xe4|Es\xe6n@i\xa1\xefe\xae\xf2r@"s2\xf7\xdd<w@w.\'#\xae\x7f|@rLcl\xb4y\x81@\xa5\xf5\xa84\x8bn\x85@\x13q\xb6\x10\xb0H\x8a@mxv\x86\x06\x1e\x90@\x9d\xc4\xda\x86&\xc4\x93@\x02\xca\xf8\x80\xc2=\x98@\xbaE\x1a\xa7\xbb\xba\x9d@]C\xca\x16\xe5:\xa2@\xd0BI\xc6x[\xa6@\xcdK.\x7fAk\xab@\x8f\xcfu\x9b3\xd0\xb0@:\x01\xd4T\xaa\x9e\xb4@\x9d\xde\xa5\xfb\xbeI\xb9@E\xf4 \x11d\x03\xbf@qR\x13wm\x04\xc3@\xc2^5\x93\xa1R\xc7@ JA&_\x9a\xcc@\xb4\x14\xa5k\x12\x8a\xd1@`\x05\x95\xcf\x9d\x82\xd5@'
p3538
tp3539
bsg1807
F1.75
sg2290
g0
(g2291
g2
Ntp3540
Rp3541
(dp3542
g2295
I00
sg2296
Nsg2297
g3523
sg2304
I00
sg2305
F0.1111111111111111
sg2306
I1
sg2307
I00
sbsbasg3533
I1
sS'spines'
p3543
ccollections
OrderedDict
p3544
((lp3545
(lp3546
Vleft
p3547
ag0
(cmatplotlib.spines
Spine
p3548
g2
Ntp3549
Rp3550
(dp3551
g1733
g59
sg2119
I00
sg1787
I01
sg1754
g1757
sS'_bounds'
p3552
Nsg1753
I01
sg1759
Nsg1788
Nsg1763
g1764
sg1789
Nsg1743
I01
sg2097
g2859
sg1790
g0
(g690
g2
Ntp3553
Rp3554
(dp3555
g14
I1
sg84
Nsg58
g59
sg41
(dp3556
sbsg1795
g1817
sg1768
Nsg1770
Nsg1797
g1814
sg1760
Nsg1774
I00
sg1775
I00
sg1776
(dp3557
sg1834
(NNtp3558
sg2033
(Voutward
p3559
F0.0
tp3560
sg1778
I00
sg1805
Nsg1806
I01
sg1807
F0.0
sS'_patch_type'
p3561
Vline
p3562
sg1779
Nsg1810
Nsg1811
I01
sg1812
Nsg1813
Vnone
p3563
sg1815
Nsg1816
g1996
sg1818
g1819
sS'_patch_transform'
p3564
g0
(g690
g2
Ntp3565
Rp3566
(dp3567
g14
I1
sg84
Nsg58
g59
sg41
(dp3568
sbsg1820
g1821
sg1822
g0
(g1823
g1824
((lp3569
(lp3570
tp3571
tp3572
Rp3573
sg1830
I0
sS'_spine_transform'
p3574
(Videntity
p3575
g0
(g690
g2
Ntp3576
Rp3577
(dp3578
g14
I1
sg84
Nsg58
g59
sg41
(dp3579
sbtp3580
sg1831
I01
sg1833
NsS'spine_type'
p3581
g3547
sg60
g163
sg1808
Nsg2260
F2.5
sg1836
Vprojecting
p3582
sg1838
Nsg1771
Nsg1839
g7
sg1780
Nsg2290
g0
(g2291
g2
Ntp3583
Rp3584
(dp3585
g2295
I00
sg2296
Nsg2297
g26
(g27
(I0
tp3586
g29
tp3587
Rp3588
(I1
(L2L
L2L
tp3589
g36
I00
S'\x00\x00\x00\x00\x00\x00\x00\x00\x00\x00\x00\x00\x00\x00*@\x00\x00\x00\x00\x00\x00\x00\x00\x00\x00\x00\x00\x00\x00*@'
p3590
tp3591
bsg2304
I00
sg2305
F0.1111111111111111
sg2306
I1
sg2307
I00
sbsbaa(lp3592
Vright
p3593
ag0
(g3548
g2
Ntp3594
Rp3595
(dp3596
g1733
g59
sg2119
I00
sg1787
I01
sg1754
g1757
sg3552
Nsg1753
I01
sg1759
Nsg1788
Nsg1763
g1764
sg1789
Nsg1743
I01
sg2097
g2859
sg1790
g0
(g690
g2
Ntp3597
Rp3598
(dp3599
g14
I1
sg84
Nsg58
g59
sg41
(dp3600
sbsg1795
g1817
sg1768
Nsg1770
Nsg1797
g1814
sg1760
Nsg1774
I00
sg1775
I00
sg1776
(dp3601
sg1834
(NNtp3602
sg2033
g3560
sg1778
I00
sg1805
Nsg1806
I01
sg1807
F0.0
sg3561
g3562
sg1779
Nsg1810
Nsg1811
I01
sg1812
Nsg1813
g3563
sg1815
Nsg1816
g1996
sg1818
g1819
sg3564
g0
(g690
g2
Ntp3603
Rp3604
(dp3605
g14
I1
sg84
Nsg58
g59
sg41
(dp3606
sbsg1820
g1821
sg1822
g0
(g1823
g1824
((lp3607
(lp3608
tp3609
tp3610
Rp3611
sg1830
I0
sg3574
(g3575
g0
(g690
g2
Ntp3612
Rp3613
(dp3614
g14
I1
sg84
Nsg58
g59
sg41
(dp3615
sbtp3616
sg1831
I01
sg1833
Nsg3581
g3593
sg60
g163
sg1808
Nsg2260
F2.5
sg1836
g3582
sg1838
Nsg1771
Nsg1839
g7
sg1780
Nsg2290
g0
(g2291
g2
Ntp3617
Rp3618
(dp3619
g2295
I00
sg2296
Nsg2297
g26
(g27
(I0
tp3620
g29
tp3621
Rp3622
(I1
(L2L
L2L
tp3623
g36
I00
S'\x00\x00\x00\x00\x00\x00\xf0?\x00\x00\x00\x00\x00\x00*@\x00\x00\x00\x00\x00\x00\xf0?\x00\x00\x00\x00\x00\x00*@'
p3624
tp3625
bsg2304
I00
sg2305
F0.1111111111111111
sg2306
I1
sg2307
I00
sbsbaa(lp3626
Vbottom
p3627
ag0
(g3548
g2
Ntp3628
Rp3629
(dp3630
g1733
g59
sg2119
I00
sg1787
I01
sg1754
g1757
sg3552
Nsg1753
I01
sg1759
Nsg1788
Nsg1763
g1764
sg1789
Nsg1743
I01
sg2097
g2065
sg1790
g0
(g690
g2
Ntp3631
Rp3632
(dp3633
g14
I1
sg84
Nsg58
g59
sg41
(dp3634
sbsg1795
g1817
sg1768
Nsg1770
Nsg1797
g1814
sg1760
Nsg1774
I00
sg1775
I00
sg1776
(dp3635
sg1834
(NNtp3636
sg2033
g3560
sg1778
I00
sg1805
Nsg1806
I01
sg1807
F0.0
sg3561
g3562
sg1779
Nsg1810
Nsg1811
I01
sg1812
Nsg1813
g3563
sg1815
Nsg1816
g1996
sg1818
g1819
sg3564
g0
(g690
g2
Ntp3637
Rp3638
(dp3639
g14
I1
sg84
Nsg58
g59
sg41
(dp3640
sbsg1820
g1821
sg1822
g0
(g1823
g1824
((lp3641
(lp3642
tp3643
tp3644
Rp3645
sg1830
I0
sg3574
(g3575
g0
(g690
g2
Ntp3646
Rp3647
(dp3648
g14
I1
sg84
Nsg58
g59
sg41
(dp3649
sbtp3650
sg1831
I01
sg1833
Nsg3581
g3627
sg60
g242
sg1808
Nsg2260
F2.5
sg1836
g3582
sg1838
Nsg1771
Nsg1839
g7
sg1780
Nsg2290
g0
(g2291
g2
Ntp3651
Rp3652
(dp3653
g2295
I00
sg2296
Nsg2297
g26
(g27
(I0
tp3654
g29
tp3655
Rp3656
(I1
(L2L
L2L
tp3657
g36
I00
S'\x00\x00\x00\x00\x00\x00*@\x00\x00\x00\x00\x00\x00\x00\x00\x00\x00\x00\x00\x00\x00*@\x00\x00\x00\x00\x00\x00\x00\x00'
p3658
tp3659
bsg2304
I00
sg2305
F0.1111111111111111
sg2306
I1
sg2307
I00
sbsbaa(lp3660
Vtop
p3661
ag0
(g3548
g2
Ntp3662
Rp3663
(dp3664
g1733
g59
sg2119
I00
sg1787
I01
sg1754
g1757
sg3552
Nsg1753
I01
sg1759
Nsg1788
Nsg1763
g1764
sg1789
Nsg1743
I01
sg2097
g2065
sg1790
g0
(g690
g2
Ntp3665
Rp3666
(dp3667
g14
I1
sg84
Nsg58
g59
sg41
(dp3668
sbsg1795
g1817
sg1768
Nsg1770
Nsg1797
g1814
sg1760
Nsg1774
I00
sg1775
I00
sg1776
(dp3669
sg1834
(NNtp3670
sg2033
g3560
sg1778
I00
sg1805
Nsg1806
I01
sg1807
F0.0
sg3561
g3562
sg1779
Nsg1810
Nsg1811
I01
sg1812
Nsg1813
g3563
sg1815
Nsg1816
g1996
sg1818
g1819
sg3564
g0
(g690
g2
Ntp3671
Rp3672
(dp3673
g14
I1
sg84
Nsg58
g59
sg41
(dp3674
sbsg1820
g1821
sg1822
g0
(g1823
g1824
((lp3675
(lp3676
tp3677
tp3678
Rp3679
sg1830
I0
sg3574
(g3575
g0
(g690
g2
Ntp3680
Rp3681
(dp3682
g14
I1
sg84
Nsg58
g59
sg41
(dp3683
sbtp3684
sg1831
I01
sg1833
Nsg3581
g3661
sg60
g242
sg1808
Nsg2260
F2.5
sg1836
g3582
sg1838
Nsg1771
Nsg1839
g7
sg1780
Nsg2290
g0
(g2291
g2
Ntp3685
Rp3686
(dp3687
g2295
I00
sg2296
Nsg2297
g26
(g27
(I0
tp3688
g29
tp3689
Rp3690
(I1
(L2L
L2L
tp3691
g36
I00
S'\x00\x00\x00\x00\x00\x00*@\x00\x00\x00\x00\x00\x00\xf0?\x00\x00\x00\x00\x00\x00*@\x00\x00\x00\x00\x00\x00\xf0?'
p3692
tp3693
bsg2304
I00
sg2305
F0.1111111111111111
sg2306
I1
sg2307
I00
sbsbaatp3694
Rp3695
sS'_anchor'
p3696
VC
p3697
sg1789
Nsg1838
NsS'_use_sticky_edges'
p3698
I01
sb.