ccopy_reg
_reconstructor
p0
(cmatplotlib.figure
Figure
p1
c__builtin__
object
p2
Ntp3
Rp4
(dp5
S'_label'
p6
V
p7
sS'_visible'
p8
I01
sS'figure'
p9
NsS'stale_callback'
p10
NsS'_rasterized'
p11
NsS'texts'
p12
(lp13
sS'_hold'
p14
I01
sS'artists'
p15
(lp16
sS'_path_effects'
p17
(lp18
sS'frameon'
p19
I01
sS'_clipon'
p20
I01
sV__mpl_version__
p21
S'2.0.0'
p22
sS'_clippath'
p23
NsS'_original_dpi'
p24
F100.0
sS'_sketch'
p25
NsS'_contains'
p26
NsS'_tight_parameters'
p27
(dp28
sS'_mouseover'
p29
I00
sS'_animated'
p30
I00
sS'_propobservers'
p31
(dp32
sS'eventson'
p33
I00
sS'_picker'
p34
NsS'_remove_method'
p35
NsS'figurePatch'
p36
g0
(cmatplotlib.patches
Rectangle
p37
g2
Ntp38
Rp39
(dp40
g6
g7
sS'_width'
p41
F1.0
sS'_fill'
p42
I01
sg9
g4
sg8
I01
sg10
NsS'_agg_filter'
p43
Nsg17
g18
sS'_gid'
p44
Nsg20
I01
sS'_combined_transform'
p45
g0
(cmatplotlib.transforms
IdentityTransform
p46
g2
Ntp47
Rp48
(dp49
S'_invalid'
p50
I1
sS'_inverted'
p51
NsS'_shorthand_name'
p52
g7
sS'_parents'
p53
(dp54
sbsS'_edgecolor'
p55
(F1.0
F1.0
F1.0
I1
tp56
sg23
NsS'_y'
p57
F0.0
sS'_x'
p58
F0.0
sg25
NsS'_original_edgecolor'
p59
Vw
p60
sg11
Nsg29
I00
sg30
I00
sg31
(dp61
sS'_rect_transform'
p62
g0
(g46
g2
Ntp63
Rp64
(dp65
g50
I1
sg51
Nsg52
g7
sg53
(dp66
sbsg33
I00
sS'_hatch'
p67
NsS'_stale'
p68
I01
sS'_linewidth'
p69
F0.0
sS'clipbox'
p70
NsS'_height'
p71
F1.0
sg34
NsS'_dashes'
p72
NsS'_antialiased'
p73
I00
sS'_dashoffset'
p74
NsS'_original_facecolor'
p75
g60
sS'_snap'
p76
NsS'_facecolor'
p77
g56
sS'_joinstyle'
p78
Vmiter
p79
sS'_linestyle'
p80
Vsolid
p81
sS'_sticky_edges'
p82
g0
(cmatplotlib.artist
_XYPair
p83
c__builtin__
tuple
p84
((lp85
(lp86
tp87
tp88
Rp89
sS'_oid'
p90
I0
sS'_transformSet'
p91
I01
sS'_angle'
p92
F0.0
sS'_alpha'
p93
NsS'_transform'
p94
g0
(cmatplotlib.transforms
BboxTransformTo
p95
g2
Ntp96
Rp97
(dp98
g50
I2
sS'_mtx'
p99
Nsg51
NsS'_boxout'
p100
g0
(cmatplotlib.transforms
TransformedBbox
p101
g2
Ntp102
Rp103
(dp104
g50
I0
sS'_bbox'
p105
g0
(cmatplotlib.transforms
Bbox
p106
g2
Ntp107
Rp108
(dp109
g50
I0
sS'_minpos'
p110
cnumpy.core.multiarray
_reconstruct
p111
(cnumpy
ndarray
p112
(I0
tp113
S'b'
p114
tp115
Rp116
(I1
(L2L
tp117
cnumpy
dtype
p118
(S'f8'
p119
I0
I1
tp120
Rp121
(I3
S'<'
p122
NNNI-1
I-1
I0
tp123
bI00
S'\x00\x00\x00\x00\x00\x00\xf0\x7f\x00\x00\x00\x00\x00\x00\xf0\x7f'
p124
tp125
bsg53
(dp126
L246386984L
g103
ssS'_points_orig'
p127
g111
(g112
(I0
tp128
g114
tp129
Rp130
(I1
(L2L
L2L
tp131
g121
I00
S'\x00\x00\x00\x00\x00\x00\x00\x00\x00\x00\x00\x00\x00\x00\x00\x00\x9a\x99\x99\x99\x99\x99\x19@333333\x13@'
p132
tp133
bsS'_points'
p134
g111
(g112
(I0
tp135
g114
tp136
Rp137
(I1
(L2L
L2L
tp138
g121
I00
S'\x00\x00\x00\x00\x00\x00\x00\x00\x00\x00\x00\x00\x00\x00\x00\x00\x9a\x99\x99\x99\x99\x99\x19@333333\x13@'
p139
tp140
bsS'_ignore'
p141
I01
sg52
g7
sbsg94
g0
(cmatplotlib.transforms
Affine2D
p142
g2
Ntp143
Rp144
(dp145
g50
I0
sg51
Nsg99
g111
(g112
(I0
tp146
g114
tp147
Rp148
(I1
(L3L
L3L
tp149
g121
I00
S'\x00\x00\x00\x00\x00\x00Y@\x00\x00\x00\x00\x00\x00\x00\x00\x00\x00\x00\x00\x00\x00\x00\x00\x00\x00\x00\x00\x00\x00\x00\x00\x00\x00\x00\x00\x00\x00Y@\x00\x00\x00\x00\x00\x00\x00\x00\x00\x00\x00\x00\x00\x00\x00\x00\x00\x00\x00\x00\x00\x00\x00\x00\x00\x00\x00\x00\x00\x00\xf0?'
p150
tp151
bsg52
g7
sg53
(dp152
L244599328L
g0
(cmatplotlib.transforms
ScaledTranslation
p153
g2
Ntp154
Rp155
(dp156
g50
I1
sg99
NsS'_scale_trans'
p157
g144
sg51
NsS'_t'
p158
(I0
F-0.09722222222222222
tp159
sg52
g7
sg53
(dp160
L244599216L
g0
(cmatplotlib.transforms
CompositeGenericTransform
p161
g2
Ntp162
Rp163
(dp164
g50
I2
sS'input_dims'
p165
I2
sS'_a'
p166
g0
(cmatplotlib.transforms
BlendedGenericTransform
p167
g2
Ntp168
Rp169
(dp170
g50
I2
sg57
g0
(g95
g2
Ntp171
Rp172
(dp173
g50
I1
sg99
Nsg51
Nsg100
g0
(g101
g2
Ntp174
Rp175
(dp176
g50
I1
sg105
g0
(g106
g2
Ntp177
Rp178
(dp179
g50
I0
sg110
g111
(g112
(I0
tp180
g114
tp181
Rp182
(I1
(L2L
tp183
g121
I00
S'\x00\x00\x00\x00\x00\x00\xf0\x7f\x00\x00\x00\x00\x00\x00\xf0\x7f'
p184
tp185
bsg53
(dp186
L245568344L
g175
ssg127
g111
(g112
(I0
tp187
g114
tp188
Rp189
(I1
(L2L
L2L
tp190
g121
I00
S'\x00\x00\x00\x00\x00\x00\xc0?(\\\x8f\xc2\xf5(\xbc?\xcd\xcc\xcc\xcc\xcc\xcc\xec?)\\\x8f\xc2\xf5(\xec?'
p191
tp192
bsg134
g111
(g112
(I0
tp193
g114
tp194
Rp195
(I1
(L2L
L2L
tp196
g121
I00
S'\x00\x00\x00\x00\x00\x00\xc0?(\\\x8f\xc2\xf5(\xbc?\xcd\xcc\xcc\xcc\xcc\xcc\xec?)\\\x8f\xc2\xf5(\xec?'
p197
tp198
bsg141
I01
sg52
g7
sbsg94
g97
sg134
Nsg53
(dp199
L200760232L
g172
ssg52
g7
sbsg53
(dp200
L246492800L
g0
(g161
g2
Ntp201
Rp202
(dp203
g50
I2
sg165
I2
sg166
g0
(cmatplotlib.transforms
BboxTransformFrom
p204
g2
Ntp205
Rp206
(dp207
g50
I2
sS'_boxin'
p208
g0
(g101
g2
Ntp209
Rp210
(dp211
g50
I2
sg105
g0
(g106
g2
Ntp212
Rp213
(dp214
g50
I2
sg110
g111
(g112
(I0
tp215
g114
tp216
Rp217
(I1
(L2L
tp218
g121
I00
S'\x00\x00\x00\x00\x00\x00\xf0\x7f\x00\x00\x00\x00\x00\x00\xf0\x7f'
p219
tp220
bsg53
(dp221
L205682000L
g210
ssg127
g111
(g112
(I0
tp222
g114
tp223
Rp224
(I1
(L2L
L2L
tp225
g121
I00
S'\x00\x00\x00\x00\x00\x00\x00\x00\x00\x00\x00\x00\x00\x00\x00\x00\x00\x00\x00\x00\x00\x00\xf0?\x00\x00\x00\x00\x00\x00\xf0?'
p226
tp227
bsg134
g111
(g112
(I0
tp228
g114
tp229
Rp230
(I1
(L2L
L2L
tp231
g121
I00
S'\xe0\xf0\x9cv/\x1b\xd4\xbf\x16_\x08\xfcH\x97\xf1\xbf&\xfc\xadK\xaec\x1a@\x16_\x08\xfcH\x97\xf1?'
p232
tp233
bsg141
I01
sg52
g7
sbsg94
g0
(cmatplotlib.transforms
TransformWrapper
p234
g2
Ntp235
Rp236
(dp237
Voutput_dims
p238
I2
sVparents
p239
(dp240
L205682000L
g210
sL246489776L
g0
(g161
g2
Ntp241
Rp242
(dp243
g50
I2
sg165
I2
sg166
g236
sS'output_dims'
p244
I2
sS'_b'
p245
g202
sg53
(dp246
L246490728L
g169
sL245625072L
g0
(g167
g2
Ntp247
Rp248
(dp249
g50
I2
sg57
g242
sg58
g172
sS'_affine'
p250
Nsg53
(dp251
L244600000L
g0
(g161
g2
Ntp252
Rp253
(dp254
g50
I2
sg165
I2
sg166
g248
sg244
I2
sg245
g0
(g153
g2
Ntp255
Rp256
(dp257
g50
I1
sg99
Nsg157
g144
sg51
Nsg158
(F-0.07500000000000001
I0
tp258
sg52
g7
sg53
(dp259
L244600000L
g253
ssbsg53
(dp260
sg52
g7
sbsL244600224L
g0
(g161
g2
Ntp261
Rp262
(dp263
g50
I2
sg165
I2
sg166
g248
sg244
I2
sg245
g0
(g153
g2
Ntp264
Rp265
(dp266
g50
I1
sg99
Nsg157
g144
sg51
Nsg158
(F-0.09722222222222222
I0
tp267
sg52
g7
sg53
(dp268
L244600224L
g262
ssbsg53
(dp269
sg52
g7
sbsL244598544L
g0
(g161
g2
Ntp270
Rp271
(dp272
g50
I2
sg165
I2
sg166
g248
sg244
I2
sg245
g0
(g153
g2
Ntp273
Rp274
(dp275
g50
I1
sg99
Nsg157
g144
sg51
Nsg158
(F0.07500000000000001
I0
tp276
sg52
g7
sg53
(dp277
L244598544L
g271
ssbsg53
(dp278
sg52
g7
sbsL244597816L
g0
(g161
g2
Ntp279
Rp280
(dp281
g50
I2
sg165
I2
sg166
g248
sg244
I2
sg245
g0
(g153
g2
Ntp282
Rp283
(dp284
g50
I1
sg99
Nsg157
g144
sg51
Nsg158
(F0.09722222222222222
I0
tp285
sg52
g7
sg53
(dp286
L244597816L
g280
ssbsg53
(dp287
sg52
g7
sbsL244600448L
g0
(g161
g2
Ntp288
Rp289
(dp290
g50
I2
sg165
I2
sg166
g248
sg244
I2
sg245
g0
(g153
g2
Ntp291
Rp292
(dp293
g50
I1
sg99
Nsg157
g144
sg51
Nsg158
(F0.09722222222222222
I0
tp294
sg52
g7
sg53
(dp295
L244600448L
g289
ssbsg53
(dp296
sg52
g7
sbsL244597424L
g0
(g161
g2
Ntp297
Rp298
(dp299
g50
I2
sg165
I2
sg166
g248
sg244
I2
sg245
g0
(g153
g2
Ntp300
Rp301
(dp302
g50
I1
sg99
Nsg157
g144
sg51
Nsg158
(F-0.09722222222222222
I0
tp303
sg52
g7
sg53
(dp304
L244597424L
g298
ssbsg53
(dp305
sg52
g7
sbsL243929664L
g0
(g161
g2
Ntp306
Rp307
(dp308
g50
I2
sg165
I2
sg166
g248
sg244
I2
sg245
g0
(g153
g2
Ntp309
Rp310
(dp311
g50
I1
sg99
Nsg157
g144
sg51
Nsg158
(F-0.07500000000000001
I0
tp312
sg52
g7
sg53
(dp313
L243929664L
g307
ssbsg53
(dp314
sg52
g7
sbsL243929888L
g0
(g161
g2
Ntp315
Rp316
(dp317
g50
I2
sg165
I2
sg166
g248
sg244
I2
sg245
g0
(g153
g2
Ntp318
Rp319
(dp320
g50
I1
sg99
Nsg157
g144
sg51
Nsg158
(F0.07500000000000001
I0
tp321
sg52
g7
sg53
(dp322
L243929888L
g316
ssbsg53
(dp323
sg52
g7
sbssg52
g7
sbssg52
g7
sbssVinput_dims
p324
I2
sVchild
p325
g0
(cmatplotlib.transforms
BlendedAffine2D
p326
g2
Ntp327
Rp328
(dp329
g50
I0
sg99
g111
(g112
(I0
tp330
g114
tp331
Rp332
(I1
(L3L
L3L
tp333
g121
I00
S'\x00\x00\x00\x00\x00\x00\xf0?\x00\x00\x00\x00\x00\x00\x00\x00\x00\x00\x00\x00\x00\x00\x00\x00\x00\x00\x00\x00\x00\x00\x00\x00\x00\x00\x00\x00\x00\x00\xf0?\x00\x00\x00\x00\x00\x00\x00\x00\x00\x00\x00\x00\x00\x00\x00\x00\x00\x00\x00\x00\x00\x00\x00\x00\x00\x00\x00\x00\x00\x00\xf0?'
p334
tp335
bsg57
g0
(g46
g2
Ntp336
Rp337
(dp338
g50
I1
sg51
Nsg52
g7
sg53
(dp339
L243931680L
g328
ssbsg58
g0
(g46
g2
Ntp340
Rp341
(dp342
g50
I1
sg51
Nsg52
g7
sg53
(dp343
L243931680L
g328
ssbsg51
Nsg52
g7
sg53
(dp344
L246491288L
g236
ssbsbsg134
Nsg53
(dp345
L246492072L
g206
ssg52
g7
sbsg99
Nsg51
Nsg52
g7
sg53
(dp346
L246492800L
g202
ssbsg244
I2
sg245
g172
sg53
(dp347
L246489776L
g242
ssg52
g7
sbsL245718656L
g0
(g161
g2
Ntp348
Rp349
(dp350
g50
I1
sg165
I2
sg166
g0
(g161
g2
Ntp351
Rp352
(dp353
g50
I1
sg165
I2
sg166
g0
(g95
g2
Ntp354
Rp355
(dp356
g50
I1
sg99
Nsg51
Nsg100
g0
(g106
g2
Ntp357
Rp358
(dp359
g50
I1
sg110
g111
(g112
(I0
tp360
g114
tp361
Rp362
(I1
(L2L
tp363
g121
I00
S'\x00\x00\x00\x00\x00\x00\xf0\x7f\x00\x00\x00\x00\x00\x00\xf0\x7f'
p364
tp365
bsg53
(dp366
L245718544L
g355
ssg127
g111
(g112
(I0
tp367
g114
tp368
Rp369
(I1
(L2L
L2L
tp370
g121
I00
S'\x00\x00\x00\x00\x00\x00\x00\x00\x00\x00\x00\x00\x00\x00\x00\x00\x00\x00\x00\x00\x00\x00\xf0?\x00\x00\x00\x00\x00\x00\xf0?'
p371
tp372
bsg134
g111
(g112
(I0
tp373
g114
tp374
Rp375
(I1
(L2L
L2L
tp376
g121
I00
S'\x00\x00\x00\x00\x00\x00\x00\x00\x00\x00\x00\x00\x00\x00\x00\x00\x00\x00\x00\x00\x00\x00\xf0?\x00\x00\x00\x00\x00\x00\xf0?'
p377
tp378
bsg141
I01
sg52
g7
sbsg53
(dp379
L245718600L
g352
ssg52
g7
sbsg244
I2
sg245
g0
(g142
g2
Ntp380
Rp381
(dp382
g50
I2
sg51
Nsg99
g111
(g112
(I0
tp383
g114
tp384
Rp385
(I1
(L3L
L3L
tp386
g121
I00
S'\x00\x00\x00\x00\x00\x00\xf0?\x00\x00\x00\x00\x00\x00\x00\x00\x00\x00\x00\x00\x00\x00\x00\x00\x00\x00\x00\x00\x00\x00\x00\x00\x00\x00\x00\x00\x00\x00\xf0?\x00\x00\x00\x00\x00\x00\x00\x00\x00\x00\x00\x00\x00\x00\x00\x00\x00\x00\x00\x00\x00\x00\x00\x00\x00\x00\x00\x00\x00\x00\xf0?'
p387
tp388
bsg52
g7
sg53
(dp389
L245718600L
g352
ssbsg53
(dp390
L245718656L
g349
ssg52
g7
sbsg244
I2
sg245
g172
sg53
(dp391
L245718712L
g0
(g101
g2
Ntp392
Rp393
(dp394
g50
I1
sg105
g0
(g106
g2
Ntp395
Rp396
(dp397
g50
I1
sg110
g111
(g112
(I0
tp398
g114
tp399
Rp400
(I1
(L2L
tp401
g121
I00
S'\x00\x00\x00\x00\x00\x00\xf0\x7f\x00\x00\x00\x00\x00\x00\xf0\x7f'
p402
tp403
bsg53
(dp404
L245718712L
g393
ssg127
g111
(g112
(I0
tp405
g114
tp406
Rp407
(I1
(L2L
L2L
tp408
g121
I00
S'\x00\x00\x00\x00\x00\x00\x00\x00\x00\x00\x00\x00\x00\x00\x00\x00\x00\x00\x00\x00\x00\x00\xf0?\x00\x00\x00\x00\x00\x00\xf0?'
p409
tp410
bsg134
g111
(g112
(I0
tp411
g114
tp412
Rp413
(I1
(L2L
L2L
tp414
g121
I00
S'\x00\x00\x00\x00\x00\x00\x00\x00\x00\x00\x00\x00\x00\x00\x00\x00\x00\x00\x00\x00\x00\x00\xf0?\x00\x00\x00\x00\x00\x00\xf0?'
p415
tp416
bsg141
I01
sg52
g7
sbsg94
g349
sg134
Nsg53
(dp417
sg52
g7
sbssg52
g7
sbsL247657864L
g0
(g326
g2
Ntp418
Rp419
(dp420
g50
I1
sg99
Nsg57
g0
(g46
g2
Ntp421
Rp422
(dp423
g50
I1
sg51
Nsg52
g7
sg53
(dp424
L247657864L
g419
ssbsg58
g172
sg51
Nsg52
g7
sg53
(dp425
sbsL247660048L
g0
(g326
g2
Ntp426
Rp427
(dp428
g50
I1
sg99
Nsg57
g0
(g46
g2
Ntp429
Rp430
(dp431
g50
I1
sg51
Nsg52
g7
sg53
(dp432
L247660048L
g427
ssbsg58
g172
sg51
Nsg52
g7
sg53
(dp433
sbsL245716696L
g0
(g161
g2
Ntp434
Rp435
(dp436
g50
I1
sg165
I2
sg166
g0
(g161
g2
Ntp437
Rp438
(dp439
g50
I1
sg165
I2
sg166
g0
(g95
g2
Ntp440
Rp441
(dp442
g50
I1
sg99
Nsg51
Nsg100
g0
(g106
g2
Ntp443
Rp444
(dp445
g50
I1
sg110
g111
(g112
(I0
tp446
g114
tp447
Rp448
(I1
(L2L
tp449
g121
I00
S'\x00\x00\x00\x00\x00\x00\xf0\x7f\x00\x00\x00\x00\x00\x00\xf0\x7f'
p450
tp451
bsg53
(dp452
L245716584L
g441
ssg127
g111
(g112
(I0
tp453
g114
tp454
Rp455
(I1
(L2L
L2L
tp456
g121
I00
S'\x00\x00\x00\x00\x00\x00\x00\x00\x00\x00\x00\x00\x00\x00\x00\x00\x00\x00\x00\x00\x00\x00\xf0?\x00\x00\x00\x00\x00\x00\xf0?'
p457
tp458
bsg134
g111
(g112
(I0
tp459
g114
tp460
Rp461
(I1
(L2L
L2L
tp462
g121
I00
S'\x00\x00\x00\x00\x00\x00\x00\x00\x00\x00\x00\x00\x00\x00\x00\x00\x00\x00\x00\x00\x00\x00\xf0?\x00\x00\x00\x00\x00\x00\xf0?'
p463
tp464
bsg141
I01
sg52
g7
sbsg53
(dp465
L245716640L
g438
ssg52
g7
sbsg244
I2
sg245
g0
(g142
g2
Ntp466
Rp467
(dp468
g50
I2
sg51
Nsg99
g111
(g112
(I0
tp469
g114
tp470
Rp471
(I1
(L3L
L3L
tp472
g121
I00
S'\x00\x00\x00\x00\x00\x00\xf0?\x00\x00\x00\x00\x00\x00\x00\x00\x00\x00\x00\x00\x00\x00\x00\x00\x00\x00\x00\x00\x00\x00\x00\x00\x00\x00\x00\x00\x00\x00\xf0?\x00\x00\x00\x00\x00\x00\x00\x00\x00\x00\x00\x00\x00\x00\x00\x00\x00\x00\x00\x00\x00\x00\x00\x00\x00\x00\x00\x00\x00\x00\xf0?'
p473
tp474
bsg52
g7
sg53
(dp475
L245716640L
g438
ssbsg53
(dp476
L245716696L
g435
ssg52
g7
sbsg244
I2
sg245
g172
sg53
(dp477
L245716752L
g0
(g101
g2
Ntp478
Rp479
(dp480
g50
I1
sg105
g0
(g106
g2
Ntp481
Rp482
(dp483
g50
I1
sg110
g111
(g112
(I0
tp484
g114
tp485
Rp486
(I1
(L2L
tp487
g121
I00
S'\x00\x00\x00\x00\x00\x00\xf0\x7f\x00\x00\x00\x00\x00\x00\xf0\x7f'
p488
tp489
bsg53
(dp490
L245716752L
g479
ssg127
g111
(g112
(I0
tp491
g114
tp492
Rp493
(I1
(L2L
L2L
tp494
g121
I00
S'\x00\x00\x00\x00\x00\x00\x00\x00\x00\x00\x00\x00\x00\x00\x00\x00\x00\x00\x00\x00\x00\x00\xf0?\x00\x00\x00\x00\x00\x00\xf0?'
p495
tp496
bsg134
g111
(g112
(I0
tp497
g114
tp498
Rp499
(I1
(L2L
L2L
tp500
g121
I00
S'\x00\x00\x00\x00\x00\x00\x00\x00\x00\x00\x00\x00\x00\x00\x00\x00\x00\x00\x00\x00\x00\x00\xf0?\x00\x00\x00\x00\x00\x00\xf0?'
p501
tp502
bsg141
I01
sg52
g7
sbsg94
g435
sg134
Nsg53
(dp503
sg52
g7
sbssg52
g7
sbsL244772936L
g0
(g161
g2
Ntp504
Rp505
(dp506
g50
I1
sg165
I2
sg166
g0
(g161
g2
Ntp507
Rp508
(dp509
g50
I1
sg165
I2
sg166
g0
(g95
g2
Ntp510
Rp511
(dp512
g50
I1
sg99
Nsg51
Nsg100
g0
(g106
g2
Ntp513
Rp514
(dp515
g50
I1
sg110
g111
(g112
(I0
tp516
g114
tp517
Rp518
(I1
(L2L
tp519
g121
I00
S'\x00\x00\x00\x00\x00\x00\xf0\x7f\x00\x00\x00\x00\x00\x00\xf0\x7f'
p520
tp521
bsg53
(dp522
L245718936L
g511
ssg127
g111
(g112
(I0
tp523
g114
tp524
Rp525
(I1
(L2L
L2L
tp526
g121
I00
S'\x00\x00\x00\x00\x00\x00\x00\x00\x00\x00\x00\x00\x00\x00\x00\x00\x00\x00\x00\x00\x00\x00\xf0?\x00\x00\x00\x00\x00\x00\xf0?'
p527
tp528
bsg134
g111
(g112
(I0
tp529
g114
tp530
Rp531
(I1
(L2L
L2L
tp532
g121
I00
S'\x00\x00\x00\x00\x00\x00\x00\x00\x00\x00\x00\x00\x00\x00\x00\x00\x00\x00\x00\x00\x00\x00\xf0?\x00\x00\x00\x00\x00\x00\xf0?'
p533
tp534
bsg141
I01
sg52
g7
sbsg53
(dp535
L245718992L
g508
ssg52
g7
sbsg244
I2
sg245
g0
(g142
g2
Ntp536
Rp537
(dp538
g50
I2
sg51
Nsg99
g111
(g112
(I0
tp539
g114
tp540
Rp541
(I1
(L3L
L3L
tp542
g121
I00
S'\x00\x00\x00\x00\x00\x00\xf0?\x00\x00\x00\x00\x00\x00\x00\x00\x00\x00\x00\x00\x00\x00\x00\x00\x00\x00\x00\x00\x00\x00\x00\x00\x00\x00\x00\x00\x00\x00\xf0?\x00\x00\x00\x00\x00\x00\x00\x00\x00\x00\x00\x00\x00\x00\x00\x00\x00\x00\x00\x00\x00\x00\x00\x00\x00\x00\x00\x00\x00\x00\xf0?'
p543
tp544
bsg52
g7
sg53
(dp545
L245718992L
g508
ssbsg53
(dp546
L244772936L
g505
ssg52
g7
sbsg244
I2
sg245
g172
sg53
(dp547
L244772992L
g0
(g101
g2
Ntp548
Rp549
(dp550
g50
I1
sg105
g0
(g106
g2
Ntp551
Rp552
(dp553
g50
I1
sg110
g111
(g112
(I0
tp554
g114
tp555
Rp556
(I1
(L2L
tp557
g121
I00
S'\x00\x00\x00\x00\x00\x00\xf0\x7f\x00\x00\x00\x00\x00\x00\xf0\x7f'
p558
tp559
bsg53
(dp560
L244772992L
g549
ssg127
g111
(g112
(I0
tp561
g114
tp562
Rp563
(I1
(L2L
L2L
tp564
g121
I00
S'\x00\x00\x00\x00\x00\x00\x00\x00\x00\x00\x00\x00\x00\x00\x00\x00\x00\x00\x00\x00\x00\x00\xf0?\x00\x00\x00\x00\x00\x00\xf0?'
p565
tp566
bsg134
g111
(g112
(I0
tp567
g114
tp568
Rp569
(I1
(L2L
L2L
tp570
g121
I00
S'\x00\x00\x00\x00\x00\x00\x00\x00\x00\x00\x00\x00\x00\x00\x00\x00\x00\x00\x00\x00\x00\x00\xf0?\x00\x00\x00\x00\x00\x00\xf0?'
p571
tp572
bsg141
I01
sg52
g7
sbsg94
g505
sg134
Nsg53
(dp573
sg52
g7
sbssg52
g7
sbsL244466968L
g0
(g326
g2
Ntp574
Rp575
(dp576
g50
I1
sg99
Nsg57
g0
(g46
g2
Ntp577
Rp578
(dp579
g50
I1
sg51
Nsg52
g7
sg53
(dp580
L244466968L
g575
ssbsg58
g172
sg51
Nsg52
g7
sg53
(dp581
sbsL245625072L
g248
sL245716304L
g0
(g161
g2
Ntp582
Rp583
(dp584
g50
I1
sg165
I2
sg166
g0
(g161
g2
Ntp585
Rp586
(dp587
g50
I1
sg165
I2
sg166
g0
(g95
g2
Ntp588
Rp589
(dp590
g50
I1
sg99
Nsg51
Nsg100
g0
(g106
g2
Ntp591
Rp592
(dp593
g50
I1
sg110
g111
(g112
(I0
tp594
g114
tp595
Rp596
(I1
(L2L
tp597
g121
I00
S'\x00\x00\x00\x00\x00\x00\xf0\x7f\x00\x00\x00\x00\x00\x00\xf0\x7f'
p598
tp599
bsg53
(dp600
L245716192L
g589
ssg127
g111
(g112
(I0
tp601
g114
tp602
Rp603
(I1
(L2L
L2L
tp604
g121
I00
S'\x00\x00\x00\x00\x00\x00\x00\x00\x00\x00\x00\x00\x00\x00\x00\x00\x00\x00\x00\x00\x00\x00\xf0?\x00\x00\x00\x00\x00\x00\xf0?'
p605
tp606
bsg134
g111
(g112
(I0
tp607
g114
tp608
Rp609
(I1
(L2L
L2L
tp610
g121
I00
S'\x00\x00\x00\x00\x00\x00\x00\x00\x00\x00\x00\x00\x00\x00\x00\x00\x00\x00\x00\x00\x00\x00\xf0?\x00\x00\x00\x00\x00\x00\xf0?'
p611
tp612
bsg141
I01
sg52
g7
sbsg53
(dp613
L245716248L
g586
ssg52
g7
sbsg244
I2
sg245
g0
(g142
g2
Ntp614
Rp615
(dp616
g50
I2
sg51
Nsg99
g111
(g112
(I0
tp617
g114
tp618
Rp619
(I1
(L3L
L3L
tp620
g121
I00
S'\x00\x00\x00\x00\x00\x00\xf0?\x00\x00\x00\x00\x00\x00\x00\x00\x00\x00\x00\x00\x00\x00\x00\x00\x00\x00\x00\x00\x00\x00\x00\x00\x00\x00\x00\x00\x00\x00\xf0?\x00\x00\x00\x00\x00\x00\x00\x00\x00\x00\x00\x00\x00\x00\x00\x00\x00\x00\x00\x00\x00\x00\x00\x00\x00\x00\x00\x00\x00\x00\xf0?'
p621
tp622
bsg52
g7
sg53
(dp623
L245716248L
g586
ssbsg53
(dp624
L245716304L
g583
ssg52
g7
sbsg244
I2
sg245
g172
sg53
(dp625
L245716360L
g0
(g101
g2
Ntp626
Rp627
(dp628
g50
I1
sg105
g0
(g106
g2
Ntp629
Rp630
(dp631
g50
I1
sg110
g111
(g112
(I0
tp632
g114
tp633
Rp634
(I1
(L2L
tp635
g121
I00
S'\x00\x00\x00\x00\x00\x00\xf0\x7f\x00\x00\x00\x00\x00\x00\xf0\x7f'
p636
tp637
bsg53
(dp638
L245716360L
g627
ssg127
g111
(g112
(I0
tp639
g114
tp640
Rp641
(I1
(L2L
L2L
tp642
g121
I00
S'\x00\x00\x00\x00\x00\x00\x00\x00\x00\x00\x00\x00\x00\x00\x00\x00\x00\x00\x00\x00\x00\x00\xf0?\x00\x00\x00\x00\x00\x00\xf0?'
p643
tp644
bsg134
g111
(g112
(I0
tp645
g114
tp646
Rp647
(I1
(L2L
L2L
tp648
g121
I00
S'\x00\x00\x00\x00\x00\x00\x00\x00\x00\x00\x00\x00\x00\x00\x00\x00\x00\x00\x00\x00\x00\x00\xf0?\x00\x00\x00\x00\x00\x00\xf0?'
p649
tp650
bsg141
I01
sg52
g7
sbsg94
g583
sg134
Nsg53
(dp651
sg52
g7
sbssg52
g7
sbsL245717424L
g0
(g161
g2
Ntp652
Rp653
(dp654
g50
I1
sg165
I2
sg166
g0
(g161
g2
Ntp655
Rp656
(dp657
g50
I1
sg165
I2
sg166
g0
(g95
g2
Ntp658
Rp659
(dp660
g50
I1
sg99
Nsg51
Nsg100
g0
(g106
g2
Ntp661
Rp662
(dp663
g50
I1
sg110
g111
(g112
(I0
tp664
g114
tp665
Rp666
(I1
(L2L
tp667
g121
I00
S'\x00\x00\x00\x00\x00\x00\xf0\x7f\x00\x00\x00\x00\x00\x00\xf0\x7f'
p668
tp669
bsg53
(dp670
L245717312L
g659
ssg127
g111
(g112
(I0
tp671
g114
tp672
Rp673
(I1
(L2L
L2L
tp674
g121
I00
S'\x00\x00\x00\x00\x00\x00\x00\x00\x00\x00\x00\x00\x00\x00\x00\x00\x00\x00\x00\x00\x00\x00\xf0?\x00\x00\x00\x00\x00\x00\xf0?'
p675
tp676
bsg134
g111
(g112
(I0
tp677
g114
tp678
Rp679
(I1
(L2L
L2L
tp680
g121
I00
S'\x00\x00\x00\x00\x00\x00\x00\x00\x00\x00\x00\x00\x00\x00\x00\x00\x00\x00\x00\x00\x00\x00\xf0?\x00\x00\x00\x00\x00\x00\xf0?'
p681
tp682
bsg141
I01
sg52
g7
sbsg53
(dp683
L245717368L
g656
ssg52
g7
sbsg244
I2
sg245
g0
(g142
g2
Ntp684
Rp685
(dp686
g50
I2
sg51
Nsg99
g111
(g112
(I0
tp687
g114
tp688
Rp689
(I1
(L3L
L3L
tp690
g121
I00
S'\x00\x00\x00\x00\x00\x00\xf0?\x00\x00\x00\x00\x00\x00\x00\x00\x00\x00\x00\x00\x00\x00\x00\x00\x00\x00\x00\x00\x00\x00\x00\x00\x00\x00\x00\x00\x00\x00\xf0?\x00\x00\x00\x00\x00\x00\x00\x00\x00\x00\x00\x00\x00\x00\x00\x00\x00\x00\x00\x00\x00\x00\x00\x00\x00\x00\x00\x00\x00\x00\xf0?'
p691
tp692
bsg52
g7
sg53
(dp693
L245717368L
g656
ssbsg53
(dp694
L245717424L
g653
ssg52
g7
sbsg244
I2
sg245
g172
sg53
(dp695
L245717480L
g0
(g101
g2
Ntp696
Rp697
(dp698
g50
I1
sg105
g0
(g106
g2
Ntp699
Rp700
(dp701
g50
I1
sg110
g111
(g112
(I0
tp702
g114
tp703
Rp704
(I1
(L2L
tp705
g121
I00
S'\x00\x00\x00\x00\x00\x00\xf0\x7f\x00\x00\x00\x00\x00\x00\xf0\x7f'
p706
tp707
bsg53
(dp708
L245717480L
g697
ssg127
g111
(g112
(I0
tp709
g114
tp710
Rp711
(I1
(L2L
L2L
tp712
g121
I00
S'\x00\x00\x00\x00\x00\x00\x00\x00\x00\x00\x00\x00\x00\x00\x00\x00\x00\x00\x00\x00\x00\x00\xf0?\x00\x00\x00\x00\x00\x00\xf0?'
p713
tp714
bsg134
g111
(g112
(I0
tp715
g114
tp716
Rp717
(I1
(L2L
L2L
tp718
g121
I00
S'\x00\x00\x00\x00\x00\x00\x00\x00\x00\x00\x00\x00\x00\x00\x00\x00\x00\x00\x00\x00\x00\x00\xf0?\x00\x00\x00\x00\x00\x00\xf0?'
p719
tp720
bsg141
I01
sg52
g7
sbsg94
g653
sg134
Nsg53
(dp721
sg52
g7
sbssg52
g7
sbsL244636360L
g0
(g161
g2
Ntp722
Rp723
(dp724
g50
I1
sg165
I2
sg166
g0
(g161
g2
Ntp725
Rp726
(dp727
g50
I1
sg165
I2
sg166
g0
(g95
g2
Ntp728
Rp729
(dp730
g50
I1
sg99
Nsg51
Nsg100
g0
(g106
g2
Ntp731
Rp732
(dp733
g50
I1
sg110
g111
(g112
(I0
tp734
g114
tp735
Rp736
(I1
(L2L
tp737
g121
I00
S'\x00\x00\x00\x00\x00\x00\xf0\x7f\x00\x00\x00\x00\x00\x00\xf0\x7f'
p738
tp739
bsg53
(dp740
L205781144L
g729
ssg127
g111
(g112
(I0
tp741
g114
tp742
Rp743
(I1
(L2L
L2L
tp744
g121
I00
S'\x00\x00\x00\x00\x00\x00\x00\x00\x00\x00\x00\x00\x00\x00\x00\x00\x00\x00\x00\x00\x00\x00\xf0?\x00\x00\x00\x00\x00\x00\xf0?'
p745
tp746
bsg134
g111
(g112
(I0
tp747
g114
tp748
Rp749
(I1
(L2L
L2L
tp750
g121
I00
S'\x00\x00\x00\x00\x00\x00\x00\x00\x00\x00\x00\x00\x00\x00\x00\x00\x00\x00\x00\x00\x00\x00\xf0?\x00\x00\x00\x00\x00\x00\xf0?'
p751
tp752
bsg141
I01
sg52
g7
sbsg53
(dp753
L244636752L
g726
ssg52
g7
sbsg244
I2
sg245
g0
(g142
g2
Ntp754
Rp755
(dp756
g50
I2
sg51
Nsg99
g111
(g112
(I0
tp757
g114
tp758
Rp759
(I1
(L3L
L3L
tp760
g121
I00
S'\x00\x00\x00\x00\x00\x00\xf0?\x00\x00\x00\x00\x00\x00\x00\x00\x00\x00\x00\x00\x00\x00\x00\x00\x00\x00\x00\x00\x00\x00\x00\x00\x00\x00\x00\x00\x00\x00\xf0?\x00\x00\x00\x00\x00\x00\x00\x00\x00\x00\x00\x00\x00\x00\x00\x00\x00\x00\x00\x00\x00\x00\x00\x00\x00\x00\x00\x00\x00\x00\xf0?'
p761
tp762
bsg52
g7
sg53
(dp763
L244636752L
g726
ssbsg53
(dp764
L244636360L
g723
ssg52
g7
sbsg244
I2
sg245
g172
sg53
(dp765
L246548184L
g0
(g101
g2
Ntp766
Rp767
(dp768
g50
I1
sg105
g0
(g106
g2
Ntp769
Rp770
(dp771
g50
I1
sg110
g111
(g112
(I0
tp772
g114
tp773
Rp774
(I1
(L2L
tp775
g121
I00
S'\x00\x00\x00\x00\x00\x00\xf0\x7f\x00\x00\x00\x00\x00\x00\xf0\x7f'
p776
tp777
bsg53
(dp778
L246548184L
g767
ssg127
g111
(g112
(I0
tp779
g114
tp780
Rp781
(I1
(L2L
L2L
tp782
g121
I00
S'\x00\x00\x00\x00\x00\x00\x00\x00\x00\x00\x00\x00\x00\x00\x00\x00\x00\x00\x00\x00\x00\x00\xf0?\x00\x00\x00\x00\x00\x00\xf0?'
p783
tp784
bsg134
g111
(g112
(I0
tp785
g114
tp786
Rp787
(I1
(L2L
L2L
tp788
g121
I00
S'\x00\x00\x00\x00\x00\x00\x00\x00\x00\x00\x00\x00\x00\x00\x00\x00\x00\x00\x00\x00\x00\x00\xf0?\x00\x00\x00\x00\x00\x00\xf0?'
p789
tp790
bsg141
I01
sg52
g7
sbsg94
g723
sg134
Nsg53
(dp791
sg52
g7
sbssg52
g7
sbsL244466744L
g0
(g326
g2
Ntp792
Rp793
(dp794
g50
I1
sg99
Nsg57
g172
sg58
g0
(g46
g2
Ntp795
Rp796
(dp797
g50
I1
sg51
Nsg52
g7
sg53
(dp798
L244466744L
g793
ssbsg51
Nsg52
g7
sg53
(dp799
sbsL244775568L
g0
(g161
g2
Ntp800
Rp801
(dp802
g50
I1
sg165
I2
sg166
g0
(g161
g2
Ntp803
Rp804
(dp805
g50
I1
sg165
I2
sg166
g0
(g95
g2
Ntp806
Rp807
(dp808
g50
I1
sg99
Nsg51
Nsg100
g0
(g106
g2
Ntp809
Rp810
(dp811
g50
I1
sg110
g111
(g112
(I0
tp812
g114
tp813
Rp814
(I1
(L2L
tp815
g121
I00
S'\x00\x00\x00\x00\x00\x00\xf0\x7f\x00\x00\x00\x00\x00\x00\xf0\x7f'
p816
tp817
bsg53
(dp818
L244775456L
g807
ssg127
g111
(g112
(I0
tp819
g114
tp820
Rp821
(I1
(L2L
L2L
tp822
g121
I00
S'\x00\x00\x00\x00\x00\x00\x00\x00\x00\x00\x00\x00\x00\x00\x00\x00\x00\x00\x00\x00\x00\x00\xf0?\x00\x00\x00\x00\x00\x00\xf0?'
p823
tp824
bsg134
g111
(g112
(I0
tp825
g114
tp826
Rp827
(I1
(L2L
L2L
tp828
g121
I00
S'\x00\x00\x00\x00\x00\x00\x00\x00\x00\x00\x00\x00\x00\x00\x00\x00\x00\x00\x00\x00\x00\x00\xf0?\x00\x00\x00\x00\x00\x00\xf0?'
p829
tp830
bsg141
I01
sg52
g7
sbsg53
(dp831
L244775512L
g804
ssg52
g7
sbsg244
I2
sg245
g0
(g142
g2
Ntp832
Rp833
(dp834
g50
I2
sg51
Nsg99
g111
(g112
(I0
tp835
g114
tp836
Rp837
(I1
(L3L
L3L
tp838
g121
I00
S'\x00\x00\x00\x00\x00\x00\xf0?\x00\x00\x00\x00\x00\x00\x00\x00\x00\x00\x00\x00\x00\x00\x00\x00\x00\x00\x00\x00\x00\x00\x00\x00\x00\x00\x00\x00\x00\x00\xf0?\x00\x00\x00\x00\x00\x00\x00\x00\x00\x00\x00\x00\x00\x00\x00\x00\x00\x00\x00\x00\x00\x00\x00\x00\x00\x00\x00\x00\x00\x00\xf0?'
p839
tp840
bsg52
g7
sg53
(dp841
L244775512L
g804
ssbsg53
(dp842
L244775568L
g801
ssg52
g7
sbsg244
I2
sg245
g172
sg53
(dp843
L244775624L
g0
(g101
g2
Ntp844
Rp845
(dp846
g50
I1
sg105
g0
(g106
g2
Ntp847
Rp848
(dp849
g50
I1
sg110
g111
(g112
(I0
tp850
g114
tp851
Rp852
(I1
(L2L
tp853
g121
I00
S'\x00\x00\x00\x00\x00\x00\xf0\x7f\x00\x00\x00\x00\x00\x00\xf0\x7f'
p854
tp855
bsg53
(dp856
L244775624L
g845
ssg127
g111
(g112
(I0
tp857
g114
tp858
Rp859
(I1
(L2L
L2L
tp860
g121
I00
S'\x00\x00\x00\x00\x00\x00\x00\x00\x00\x00\x00\x00\x00\x00\x00\x00\x00\x00\x00\x00\x00\x00\xf0?\x00\x00\x00\x00\x00\x00\xf0?'
p861
tp862
bsg134
g111
(g112
(I0
tp863
g114
tp864
Rp865
(I1
(L2L
L2L
tp866
g121
I00
S'\x00\x00\x00\x00\x00\x00\x00\x00\x00\x00\x00\x00\x00\x00\x00\x00\x00\x00\x00\x00\x00\x00\xf0?\x00\x00\x00\x00\x00\x00\xf0?'
p867
tp868
bsg141
I01
sg52
g7
sbsg94
g801
sg134
Nsg53
(dp869
sg52
g7
sbssg52
g7
sbsL243932352L
g0
(g161
g2
Ntp870
Rp871
(dp872
g50
I1
sg165
I2
sg166
g172
sg244
I2
sg245
g0
(g153
g2
Ntp873
Rp874
(dp875
g50
I1
sg99
Nsg157
g144
sg51
Nsg158
(F0.0
F0.08333333333333333
tp876
sg52
g7
sg53
(dp877
L243932240L
g0
(g161
g2
Ntp878
Rp879
(dp880
g50
I1
sg165
I2
sg166
g172
sg244
I2
sg245
g874
sg53
(dp881
sg52
g7
sbsL243932296L
g0
(g161
g2
Ntp882
Rp883
(dp884
g50
I1
sg165
I2
sg166
g172
sg244
I2
sg245
g874
sg53
(dp885
sg52
g7
sbsL243932352L
g871
ssbsg53
(dp886
sg52
g7
sbsL244774112L
g0
(g161
g2
Ntp887
Rp888
(dp889
g50
I1
sg165
I2
sg166
g0
(g161
g2
Ntp890
Rp891
(dp892
g50
I1
sg165
I2
sg166
g0
(g95
g2
Ntp893
Rp894
(dp895
g50
I1
sg99
Nsg51
Nsg100
g0
(g106
g2
Ntp896
Rp897
(dp898
g50
I1
sg110
g111
(g112
(I0
tp899
g114
tp900
Rp901
(I1
(L2L
tp902
g121
I00
S'\x00\x00\x00\x00\x00\x00\xf0\x7f\x00\x00\x00\x00\x00\x00\xf0\x7f'
p903
tp904
bsg53
(dp905
L244774000L
g894
ssg127
g111
(g112
(I0
tp906
g114
tp907
Rp908
(I1
(L2L
L2L
tp909
g121
I00
S'\x00\x00\x00\x00\x00\x00\x00\x00\x00\x00\x00\x00\x00\x00\x00\x00\x00\x00\x00\x00\x00\x00\xf0?\x00\x00\x00\x00\x00\x00\xf0?'
p910
tp911
bsg134
g111
(g112
(I0
tp912
g114
tp913
Rp914
(I1
(L2L
L2L
tp915
g121
I00
S'\x00\x00\x00\x00\x00\x00\x00\x00\x00\x00\x00\x00\x00\x00\x00\x00\x00\x00\x00\x00\x00\x00\xf0?\x00\x00\x00\x00\x00\x00\xf0?'
p916
tp917
bsg141
I01
sg52
g7
sbsg53
(dp918
L244774056L
g891
ssg52
g7
sbsg244
I2
sg245
g0
(g142
g2
Ntp919
Rp920
(dp921
g50
I2
sg51
Nsg99
g111
(g112
(I0
tp922
g114
tp923
Rp924
(I1
(L3L
L3L
tp925
g121
I00
S'\x00\x00\x00\x00\x00\x00\xf0?\x00\x00\x00\x00\x00\x00\x00\x00\x00\x00\x00\x00\x00\x00\x00\x00\x00\x00\x00\x00\x00\x00\x00\x00\x00\x00\x00\x00\x00\x00\xf0?\x00\x00\x00\x00\x00\x00\x00\x00\x00\x00\x00\x00\x00\x00\x00\x00\x00\x00\x00\x00\x00\x00\x00\x00\x00\x00\x00\x00\x00\x00\xf0?'
p926
tp927
bsg52
g7
sg53
(dp928
L244774056L
g891
ssbsg53
(dp929
L244774112L
g888
ssg52
g7
sbsg244
I2
sg245
g172
sg53
(dp930
L244774168L
g0
(g101
g2
Ntp931
Rp932
(dp933
g50
I1
sg105
g0
(g106
g2
Ntp934
Rp935
(dp936
g50
I1
sg110
g111
(g112
(I0
tp937
g114
tp938
Rp939
(I1
(L2L
tp940
g121
I00
S'\x00\x00\x00\x00\x00\x00\xf0\x7f\x00\x00\x00\x00\x00\x00\xf0\x7f'
p941
tp942
bsg53
(dp943
L244774168L
g932
ssg127
g111
(g112
(I0
tp944
g114
tp945
Rp946
(I1
(L2L
L2L
tp947
g121
I00
S'\x00\x00\x00\x00\x00\x00\x00\x00\x00\x00\x00\x00\x00\x00\x00\x00\x00\x00\x00\x00\x00\x00\xf0?\x00\x00\x00\x00\x00\x00\xf0?'
p948
tp949
bsg134
g111
(g112
(I0
tp950
g114
tp951
Rp952
(I1
(L2L
L2L
tp953
g121
I00
S'\x00\x00\x00\x00\x00\x00\x00\x00\x00\x00\x00\x00\x00\x00\x00\x00\x00\x00\x00\x00\x00\x00\xf0?\x00\x00\x00\x00\x00\x00\xf0?'
p954
tp955
bsg141
I01
sg52
g7
sbsg94
g888
sg134
Nsg53
(dp956
sg52
g7
sbssg52
g7
sbsL243932744L
g0
(g161
g2
Ntp957
Rp958
(dp959
g50
I1
sg165
I2
sg166
g0
(g161
g2
Ntp960
Rp961
(dp962
g50
I1
sg165
I2
sg166
g0
(g95
g2
Ntp963
Rp964
(dp965
g50
I1
sg99
Nsg51
Nsg100
g0
(g106
g2
Ntp966
Rp967
(dp968
g50
I1
sg110
g111
(g112
(I0
tp969
g114
tp970
Rp971
(I1
(L2L
tp972
g121
I00
S'\x00\x00\x00\x00\x00\x00\xf0\x7f\x00\x00\x00\x00\x00\x00\xf0\x7f'
p973
tp974
bsg53
(dp975
L243932688L
g964
ssg127
g111
(g112
(I0
tp976
g114
tp977
Rp978
(I1
(L2L
L2L
tp979
g121
I00
S'\x00\x00\x00\x00\x00\x00\x00\x00\x00\x00\x00\x00\x00\x00\x00\x00\x00\x00\x00\x00\x00\x00\xf0?\x00\x00\x00\x00\x00\x00\xf0?'
p980
tp981
bsg134
g111
(g112
(I0
tp982
g114
tp983
Rp984
(I1
(L2L
L2L
tp985
g121
I00
S'\x00\x00\x00\x00\x00\x00\x00\x00\x00\x00\x00\x00\x00\x00\x00\x00\x00\x00\x00\x00\x00\x00\xf0?\x00\x00\x00\x00\x00\x00\xf0?'
p986
tp987
bsg141
I01
sg52
g7
sbsg53
(dp988
L243932464L
g961
ssg52
g7
sbsg244
I2
sg245
g0
(g142
g2
Ntp989
Rp990
(dp991
g50
I2
sg51
Nsg99
g111
(g112
(I0
tp992
g114
tp993
Rp994
(I1
(L3L
L3L
tp995
g121
I00
S'\x00\x00\x00\x00\x00\x00\xf0?\x00\x00\x00\x00\x00\x00\x00\x00\x00\x00\x00\x00\x00\x00\x00\x00\x00\x00\x00\x00\x00\x00\x00\x00\x00\x00\x00\x00\x00\x00\xf0?\x00\x00\x00\x00\x00\x00\x00\x00\x00\x00\x00\x00\x00\x00\x00\x00\x00\x00\x00\x00\x00\x00\x00\x00\x00\x00\x00\x00\x00\x00\xf0?'
p996
tp997
bsg52
g7
sg53
(dp998
L243932464L
g961
ssbsg53
(dp999
L243932744L
g958
ssg52
g7
sbsg244
I2
sg245
g172
sg53
(dp1000
L243932800L
g0
(g101
g2
Ntp1001
Rp1002
(dp1003
g50
I1
sg105
g0
(g106
g2
Ntp1004
Rp1005
(dp1006
g50
I1
sg110
g111
(g112
(I0
tp1007
g114
tp1008
Rp1009
(I1
(L2L
tp1010
g121
I00
S'\x00\x00\x00\x00\x00\x00\xf0\x7f\x00\x00\x00\x00\x00\x00\xf0\x7f'
p1011
tp1012
bsg53
(dp1013
L243932800L
g1002
ssg127
g111
(g112
(I0
tp1014
g114
tp1015
Rp1016
(I1
(L2L
L2L
tp1017
g121
I00
S'\x00\x00\x00\x00\x00\x00\x00\x00\x00\x00\x00\x00\x00\x00\x00\x00\x00\x00\x00\x00\x00\x00\xf0?\x00\x00\x00\x00\x00\x00\xf0?'
p1018
tp1019
bsg134
g111
(g112
(I0
tp1020
g114
tp1021
Rp1022
(I1
(L2L
L2L
tp1023
g121
I00
S'\x00\x00\x00\x00\x00\x00\x00\x00\x00\x00\x00\x00\x00\x00\x00\x00\x00\x00\x00\x00\x00\x00\xf0?\x00\x00\x00\x00\x00\x00\xf0?'
p1024
tp1025
bsg141
I01
sg52
g7
sbsg94
g958
sg134
Nsg53
(dp1026
sg52
g7
sbssg52
g7
sbsL243932240L
g879
sL245718264L
g0
(g161
g2
Ntp1027
Rp1028
(dp1029
g50
I1
sg165
I2
sg166
g0
(g161
g2
Ntp1030
Rp1031
(dp1032
g50
I1
sg165
I2
sg166
g0
(g95
g2
Ntp1033
Rp1034
(dp1035
g50
I1
sg99
Nsg51
Nsg100
g0
(g106
g2
Ntp1036
Rp1037
(dp1038
g50
I1
sg110
g111
(g112
(I0
tp1039
g114
tp1040
Rp1041
(I1
(L2L
tp1042
g121
I00
S'\x00\x00\x00\x00\x00\x00\xf0\x7f\x00\x00\x00\x00\x00\x00\xf0\x7f'
p1043
tp1044
bsg53
(dp1045
L245718152L
g1034
ssg127
g111
(g112
(I0
tp1046
g114
tp1047
Rp1048
(I1
(L2L
L2L
tp1049
g121
I00
S'\x00\x00\x00\x00\x00\x00\x00\x00\x00\x00\x00\x00\x00\x00\x00\x00\x00\x00\x00\x00\x00\x00\xf0?\x00\x00\x00\x00\x00\x00\xf0?'
p1050
tp1051
bsg134
g111
(g112
(I0
tp1052
g114
tp1053
Rp1054
(I1
(L2L
L2L
tp1055
g121
I00
S'\x00\x00\x00\x00\x00\x00\x00\x00\x00\x00\x00\x00\x00\x00\x00\x00\x00\x00\x00\x00\x00\x00\xf0?\x00\x00\x00\x00\x00\x00\xf0?'
p1056
tp1057
bsg141
I01
sg52
g7
sbsg53
(dp1058
L245718208L
g1031
ssg52
g7
sbsg244
I2
sg245
g0
(g142
g2
Ntp1059
Rp1060
(dp1061
g50
I2
sg51
Nsg99
g111
(g112
(I0
tp1062
g114
tp1063
Rp1064
(I1
(L3L
L3L
tp1065
g121
I00
S'\x00\x00\x00\x00\x00\x00\xf0?\x00\x00\x00\x00\x00\x00\x00\x00\x00\x00\x00\x00\x00\x00\x00\x00\x00\x00\x00\x00\x00\x00\x00\x00\x00\x00\x00\x00\x00\x00\xf0?\x00\x00\x00\x00\x00\x00\x00\x00\x00\x00\x00\x00\x00\x00\x00\x00\x00\x00\x00\x00\x00\x00\x00\x00\x00\x00\x00\x00\x00\x00\xf0?'
p1066
tp1067
bsg52
g7
sg53
(dp1068
L245718208L
g1031
ssbsg53
(dp1069
L245718264L
g1028
ssg52
g7
sbsg244
I2
sg245
g172
sg53
(dp1070
L245718320L
g0
(g101
g2
Ntp1071
Rp1072
(dp1073
g50
I1
sg105
g0
(g106
g2
Ntp1074
Rp1075
(dp1076
g50
I1
sg110
g111
(g112
(I0
tp1077
g114
tp1078
Rp1079
(I1
(L2L
tp1080
g121
I00
S'\x00\x00\x00\x00\x00\x00\xf0\x7f\x00\x00\x00\x00\x00\x00\xf0\x7f'
p1081
tp1082
bsg53
(dp1083
L245718320L
g1072
ssg127
g111
(g112
(I0
tp1084
g114
tp1085
Rp1086
(I1
(L2L
L2L
tp1087
g121
I00
S'\x00\x00\x00\x00\x00\x00\x00\x00\x00\x00\x00\x00\x00\x00\x00\x00\x00\x00\x00\x00\x00\x00\xf0?\x00\x00\x00\x00\x00\x00\xf0?'
p1088
tp1089
bsg134
g111
(g112
(I0
tp1090
g114
tp1091
Rp1092
(I1
(L2L
L2L
tp1093
g121
I00
S'\x00\x00\x00\x00\x00\x00\x00\x00\x00\x00\x00\x00\x00\x00\x00\x00\x00\x00\x00\x00\x00\x00\xf0?\x00\x00\x00\x00\x00\x00\xf0?'
p1094
tp1095
bsg141
I01
sg52
g7
sbsg94
g1028
sg134
Nsg53
(dp1096
sg52
g7
sbssg52
g7
sbsL245715800L
g0
(g161
g2
Ntp1097
Rp1098
(dp1099
g50
I1
sg165
I2
sg166
g0
(g161
g2
Ntp1100
Rp1101
(dp1102
g50
I1
sg165
I2
sg166
g0
(g95
g2
Ntp1103
Rp1104
(dp1105
g50
I1
sg99
Nsg51
Nsg100
g0
(g106
g2
Ntp1106
Rp1107
(dp1108
g50
I1
sg110
g111
(g112
(I0
tp1109
g114
tp1110
Rp1111
(I1
(L2L
tp1112
g121
I00
S'\x00\x00\x00\x00\x00\x00\xf0\x7f\x00\x00\x00\x00\x00\x00\xf0\x7f'
p1113
tp1114
bsg53
(dp1115
L245715688L
g1104
ssg127
g111
(g112
(I0
tp1116
g114
tp1117
Rp1118
(I1
(L2L
L2L
tp1119
g121
I00
S'\x00\x00\x00\x00\x00\x00\x00\x00\x00\x00\x00\x00\x00\x00\x00\x00\x00\x00\x00\x00\x00\x00\xf0?\x00\x00\x00\x00\x00\x00\xf0?'
p1120
tp1121
bsg134
g111
(g112
(I0
tp1122
g114
tp1123
Rp1124
(I1
(L2L
L2L
tp1125
g121
I00
S'\x00\x00\x00\x00\x00\x00\x00\x00\x00\x00\x00\x00\x00\x00\x00\x00\x00\x00\x00\x00\x00\x00\xf0?\x00\x00\x00\x00\x00\x00\xf0?'
p1126
tp1127
bsg141
I01
sg52
g7
sbsg53
(dp1128
L245715744L
g1101
ssg52
g7
sbsg244
I2
sg245
g0
(g142
g2
Ntp1129
Rp1130
(dp1131
g50
I2
sg51
Nsg99
g111
(g112
(I0
tp1132
g114
tp1133
Rp1134
(I1
(L3L
L3L
tp1135
g121
I00
S'\x00\x00\x00\x00\x00\x00\xf0?\x00\x00\x00\x00\x00\x00\x00\x00\x00\x00\x00\x00\x00\x00\x00\x00\x00\x00\x00\x00\x00\x00\x00\x00\x00\x00\x00\x00\x00\x00\xf0?\x00\x00\x00\x00\x00\x00\x00\x00\x00\x00\x00\x00\x00\x00\x00\x00\x00\x00\x00\x00\x00\x00\x00\x00\x00\x00\x00\x00\x00\x00\xf0?'
p1136
tp1137
bsg52
g7
sg53
(dp1138
L245715744L
g1101
ssbsg53
(dp1139
L245715800L
g1098
ssg52
g7
sbsg244
I2
sg245
g172
sg53
(dp1140
L245715856L
g0
(g101
g2
Ntp1141
Rp1142
(dp1143
g50
I1
sg105
g0
(g106
g2
Ntp1144
Rp1145
(dp1146
g50
I1
sg110
g111
(g112
(I0
tp1147
g114
tp1148
Rp1149
(I1
(L2L
tp1150
g121
I00
S'\x00\x00\x00\x00\x00\x00\xf0\x7f\x00\x00\x00\x00\x00\x00\xf0\x7f'
p1151
tp1152
bsg53
(dp1153
L245715856L
g1142
ssg127
g111
(g112
(I0
tp1154
g114
tp1155
Rp1156
(I1
(L2L
L2L
tp1157
g121
I00
S'\x00\x00\x00\x00\x00\x00\x00\x00\x00\x00\x00\x00\x00\x00\x00\x00\x00\x00\x00\x00\x00\x00\xf0?\x00\x00\x00\x00\x00\x00\xf0?'
p1158
tp1159
bsg134
g111
(g112
(I0
tp1160
g114
tp1161
Rp1162
(I1
(L2L
L2L
tp1163
g121
I00
S'\x00\x00\x00\x00\x00\x00\x00\x00\x00\x00\x00\x00\x00\x00\x00\x00\x00\x00\x00\x00\x00\x00\xf0?\x00\x00\x00\x00\x00\x00\xf0?'
p1164
tp1165
bsg141
I01
sg52
g7
sbsg94
g1098
sg134
Nsg53
(dp1166
sg52
g7
sbssg52
g7
sbsL243932296L
g883
sL245717088L
g0
(g161
g2
Ntp1167
Rp1168
(dp1169
g50
I1
sg165
I2
sg166
g0
(g161
g2
Ntp1170
Rp1171
(dp1172
g50
I1
sg165
I2
sg166
g0
(g95
g2
Ntp1173
Rp1174
(dp1175
g50
I1
sg99
Nsg51
Nsg100
g0
(g106
g2
Ntp1176
Rp1177
(dp1178
g50
I1
sg110
g111
(g112
(I0
tp1179
g114
tp1180
Rp1181
(I1
(L2L
tp1182
g121
I00
S'\x00\x00\x00\x00\x00\x00\xf0\x7f\x00\x00\x00\x00\x00\x00\xf0\x7f'
p1183
tp1184
bsg53
(dp1185
L245716976L
g1174
ssg127
g111
(g112
(I0
tp1186
g114
tp1187
Rp1188
(I1
(L2L
L2L
tp1189
g121
I00
S'\x00\x00\x00\x00\x00\x00\x00\x00\x00\x00\x00\x00\x00\x00\x00\x00\x00\x00\x00\x00\x00\x00\xf0?\x00\x00\x00\x00\x00\x00\xf0?'
p1190
tp1191
bsg134
g111
(g112
(I0
tp1192
g114
tp1193
Rp1194
(I1
(L2L
L2L
tp1195
g121
I00
S'\x00\x00\x00\x00\x00\x00\x00\x00\x00\x00\x00\x00\x00\x00\x00\x00\x00\x00\x00\x00\x00\x00\xf0?\x00\x00\x00\x00\x00\x00\xf0?'
p1196
tp1197
bsg141
I01
sg52
g7
sbsg53
(dp1198
L245717032L
g1171
ssg52
g7
sbsg244
I2
sg245
g0
(g142
g2
Ntp1199
Rp1200
(dp1201
g50
I2
sg51
Nsg99
g111
(g112
(I0
tp1202
g114
tp1203
Rp1204
(I1
(L3L
L3L
tp1205
g121
I00
S'\x00\x00\x00\x00\x00\x00\xf0?\x00\x00\x00\x00\x00\x00\x00\x00\x00\x00\x00\x00\x00\x00\x00\x00\x00\x00\x00\x00\x00\x00\x00\x00\x00\x00\x00\x00\x00\x00\xf0?\x00\x00\x00\x00\x00\x00\x00\x00\x00\x00\x00\x00\x00\x00\x00\x00\x00\x00\x00\x00\x00\x00\x00\x00\x00\x00\x00\x00\x00\x00\xf0?'
p1206
tp1207
bsg52
g7
sg53
(dp1208
L245717032L
g1171
ssbsg53
(dp1209
L245717088L
g1168
ssg52
g7
sbsg244
I2
sg245
g172
sg53
(dp1210
L245717144L
g0
(g101
g2
Ntp1211
Rp1212
(dp1213
g50
I1
sg105
g0
(g106
g2
Ntp1214
Rp1215
(dp1216
g50
I1
sg110
g111
(g112
(I0
tp1217
g114
tp1218
Rp1219
(I1
(L2L
tp1220
g121
I00
S'\x00\x00\x00\x00\x00\x00\xf0\x7f\x00\x00\x00\x00\x00\x00\xf0\x7f'
p1221
tp1222
bsg53
(dp1223
L245717144L
g1212
ssg127
g111
(g112
(I0
tp1224
g114
tp1225
Rp1226
(I1
(L2L
L2L
tp1227
g121
I00
S'\x00\x00\x00\x00\x00\x00\x00\x00\x00\x00\x00\x00\x00\x00\x00\x00\x00\x00\x00\x00\x00\x00\xf0?\x00\x00\x00\x00\x00\x00\xf0?'
p1228
tp1229
bsg134
g111
(g112
(I0
tp1230
g114
tp1231
Rp1232
(I1
(L2L
L2L
tp1233
g121
I00
S'\x00\x00\x00\x00\x00\x00\x00\x00\x00\x00\x00\x00\x00\x00\x00\x00\x00\x00\x00\x00\x00\x00\xf0?\x00\x00\x00\x00\x00\x00\xf0?'
p1234
tp1235
bsg141
I01
sg52
g7
sbsg94
g1168
sg134
Nsg53
(dp1236
sg52
g7
sbssg52
g7
sbsL244773328L
g0
(g161
g2
Ntp1237
Rp1238
(dp1239
g50
I1
sg165
I2
sg166
g0
(g161
g2
Ntp1240
Rp1241
(dp1242
g50
I1
sg165
I2
sg166
g0
(g95
g2
Ntp1243
Rp1244
(dp1245
g50
I1
sg99
Nsg51
Nsg100
g0
(g106
g2
Ntp1246
Rp1247
(dp1248
g50
I1
sg110
g111
(g112
(I0
tp1249
g114
tp1250
Rp1251
(I1
(L2L
tp1252
g121
I00
S'\x00\x00\x00\x00\x00\x00\xf0\x7f\x00\x00\x00\x00\x00\x00\xf0\x7f'
p1253
tp1254
bsg53
(dp1255
L244773216L
g1244
ssg127
g111
(g112
(I0
tp1256
g114
tp1257
Rp1258
(I1
(L2L
L2L
tp1259
g121
I00
S'\x00\x00\x00\x00\x00\x00\x00\x00\x00\x00\x00\x00\x00\x00\x00\x00\x00\x00\x00\x00\x00\x00\xf0?\x00\x00\x00\x00\x00\x00\xf0?'
p1260
tp1261
bsg134
g111
(g112
(I0
tp1262
g114
tp1263
Rp1264
(I1
(L2L
L2L
tp1265
g121
I00
S'\x00\x00\x00\x00\x00\x00\x00\x00\x00\x00\x00\x00\x00\x00\x00\x00\x00\x00\x00\x00\x00\x00\xf0?\x00\x00\x00\x00\x00\x00\xf0?'
p1266
tp1267
bsg141
I01
sg52
g7
sbsg53
(dp1268
L244773272L
g1241
ssg52
g7
sbsg244
I2
sg245
g0
(g142
g2
Ntp1269
Rp1270
(dp1271
g50
I2
sg51
Nsg99
g111
(g112
(I0
tp1272
g114
tp1273
Rp1274
(I1
(L3L
L3L
tp1275
g121
I00
S'\x00\x00\x00\x00\x00\x00\xf0?\x00\x00\x00\x00\x00\x00\x00\x00\x00\x00\x00\x00\x00\x00\x00\x00\x00\x00\x00\x00\x00\x00\x00\x00\x00\x00\x00\x00\x00\x00\xf0?\x00\x00\x00\x00\x00\x00\x00\x00\x00\x00\x00\x00\x00\x00\x00\x00\x00\x00\x00\x00\x00\x00\x00\x00\x00\x00\x00\x00\x00\x00\xf0?'
p1276
tp1277
bsg52
g7
sg53
(dp1278
L244773272L
g1241
ssbsg53
(dp1279
L244773328L
g1238
ssg52
g7
sbsg244
I2
sg245
g172
sg53
(dp1280
L244773384L
g0
(g101
g2
Ntp1281
Rp1282
(dp1283
g50
I1
sg105
g0
(g106
g2
Ntp1284
Rp1285
(dp1286
g50
I1
sg110
g111
(g112
(I0
tp1287
g114
tp1288
Rp1289
(I1
(L2L
tp1290
g121
I00
S'\x00\x00\x00\x00\x00\x00\xf0\x7f\x00\x00\x00\x00\x00\x00\xf0\x7f'
p1291
tp1292
bsg53
(dp1293
L244773384L
g1282
ssg127
g111
(g112
(I0
tp1294
g114
tp1295
Rp1296
(I1
(L2L
L2L
tp1297
g121
I00
S'\x00\x00\x00\x00\x00\x00\x00\x00\x00\x00\x00\x00\x00\x00\x00\x00\x00\x00\x00\x00\x00\x00\xf0?\x00\x00\x00\x00\x00\x00\xf0?'
p1298
tp1299
bsg134
g111
(g112
(I0
tp1300
g114
tp1301
Rp1302
(I1
(L2L
L2L
tp1303
g121
I00
S'\x00\x00\x00\x00\x00\x00\x00\x00\x00\x00\x00\x00\x00\x00\x00\x00\x00\x00\x00\x00\x00\x00\xf0?\x00\x00\x00\x00\x00\x00\xf0?'
p1304
tp1305
bsg141
I01
sg52
g7
sbsg94
g1238
sg134
Nsg53
(dp1306
sg52
g7
sbssg52
g7
sbsL246490728L
g169
sL244773720L
g0
(g161
g2
Ntp1307
Rp1308
(dp1309
g50
I1
sg165
I2
sg166
g0
(g161
g2
Ntp1310
Rp1311
(dp1312
g50
I1
sg165
I2
sg166
g0
(g95
g2
Ntp1313
Rp1314
(dp1315
g50
I1
sg99
Nsg51
Nsg100
g0
(g106
g2
Ntp1316
Rp1317
(dp1318
g50
I1
sg110
g111
(g112
(I0
tp1319
g114
tp1320
Rp1321
(I1
(L2L
tp1322
g121
I00
S'\x00\x00\x00\x00\x00\x00\xf0\x7f\x00\x00\x00\x00\x00\x00\xf0\x7f'
p1323
tp1324
bsg53
(dp1325
L244773608L
g1314
ssg127
g111
(g112
(I0
tp1326
g114
tp1327
Rp1328
(I1
(L2L
L2L
tp1329
g121
I00
S'\x00\x00\x00\x00\x00\x00\x00\x00\x00\x00\x00\x00\x00\x00\x00\x00\x00\x00\x00\x00\x00\x00\xf0?\x00\x00\x00\x00\x00\x00\xf0?'
p1330
tp1331
bsg134
g111
(g112
(I0
tp1332
g114
tp1333
Rp1334
(I1
(L2L
L2L
tp1335
g121
I00
S'\x00\x00\x00\x00\x00\x00\x00\x00\x00\x00\x00\x00\x00\x00\x00\x00\x00\x00\x00\x00\x00\x00\xf0?\x00\x00\x00\x00\x00\x00\xf0?'
p1336
tp1337
bsg141
I01
sg52
g7
sbsg53
(dp1338
L244773664L
g1311
ssg52
g7
sbsg244
I2
sg245
g0
(g142
g2
Ntp1339
Rp1340
(dp1341
g50
I2
sg51
Nsg99
g111
(g112
(I0
tp1342
g114
tp1343
Rp1344
(I1
(L3L
L3L
tp1345
g121
I00
S'\x00\x00\x00\x00\x00\x00\xf0?\x00\x00\x00\x00\x00\x00\x00\x00\x00\x00\x00\x00\x00\x00\x00\x00\x00\x00\x00\x00\x00\x00\x00\x00\x00\x00\x00\x00\x00\x00\xf0?\x00\x00\x00\x00\x00\x00\x00\x00\x00\x00\x00\x00\x00\x00\x00\x00\x00\x00\x00\x00\x00\x00\x00\x00\x00\x00\x00\x00\x00\x00\xf0?'
p1346
tp1347
bsg52
g7
sg53
(dp1348
L244773664L
g1311
ssbsg53
(dp1349
L244773720L
g1308
ssg52
g7
sbsg244
I2
sg245
g172
sg53
(dp1350
L244773776L
g0
(g101
g2
Ntp1351
Rp1352
(dp1353
g50
I1
sg105
g0
(g106
g2
Ntp1354
Rp1355
(dp1356
g50
I1
sg110
g111
(g112
(I0
tp1357
g114
tp1358
Rp1359
(I1
(L2L
tp1360
g121
I00
S'\x00\x00\x00\x00\x00\x00\xf0\x7f\x00\x00\x00\x00\x00\x00\xf0\x7f'
p1361
tp1362
bsg53
(dp1363
L244773776L
g1352
ssg127
g111
(g112
(I0
tp1364
g114
tp1365
Rp1366
(I1
(L2L
L2L
tp1367
g121
I00
S'\x00\x00\x00\x00\x00\x00\x00\x00\x00\x00\x00\x00\x00\x00\x00\x00\x00\x00\x00\x00\x00\x00\xf0?\x00\x00\x00\x00\x00\x00\xf0?'
p1368
tp1369
bsg134
g111
(g112
(I0
tp1370
g114
tp1371
Rp1372
(I1
(L2L
L2L
tp1373
g121
I00
S'\x00\x00\x00\x00\x00\x00\x00\x00\x00\x00\x00\x00\x00\x00\x00\x00\x00\x00\x00\x00\x00\x00\xf0?\x00\x00\x00\x00\x00\x00\xf0?'
p1374
tp1375
bsg141
I01
sg52
g7
sbsg94
g1308
sg134
Nsg53
(dp1376
sg52
g7
sbssg52
g7
sbsL244599160L
g0
(g161
g2
Ntp1377
Rp1378
(dp1379
g50
I1
sg165
I2
sg166
g0
(g161
g2
Ntp1380
Rp1381
(dp1382
g50
I1
sg165
I2
sg166
g0
(g95
g2
Ntp1383
Rp1384
(dp1385
g50
I1
sg99
Nsg51
Nsg100
g0
(g106
g2
Ntp1386
Rp1387
(dp1388
g50
I1
sg110
g111
(g112
(I0
tp1389
g114
tp1390
Rp1391
(I1
(L2L
tp1392
g121
I00
S'\x00\x00\x00\x00\x00\x00\xf0\x7f\x00\x00\x00\x00\x00\x00\xf0\x7f'
p1393
tp1394
bsg53
(dp1395
L244598488L
g1384
ssg127
g111
(g112
(I0
tp1396
g114
tp1397
Rp1398
(I1
(L2L
L2L
tp1399
g121
I00
S'\x00\x00\x00\x00\x00\x00\x00\x00\x00\x00\x00\x00\x00\x00\x00\x00\x00\x00\x00\x00\x00\x00\xf0?\x00\x00\x00\x00\x00\x00\xf0?'
p1400
tp1401
bsg134
g111
(g112
(I0
tp1402
g114
tp1403
Rp1404
(I1
(L2L
L2L
tp1405
g121
I00
S'\x00\x00\x00\x00\x00\x00\x00\x00\x00\x00\x00\x00\x00\x00\x00\x00\x00\x00\x00\x00\x00\x00\xf0?\x00\x00\x00\x00\x00\x00\xf0?'
p1406
tp1407
bsg141
I01
sg52
g7
sbsg53
(dp1408
L244599384L
g1381
ssg52
g7
sbsg244
I2
sg245
g0
(g142
g2
Ntp1409
Rp1410
(dp1411
g50
I2
sg51
Nsg99
g111
(g112
(I0
tp1412
g114
tp1413
Rp1414
(I1
(L3L
L3L
tp1415
g121
I00
S'\x00\x00\x00\x00\x00\x00\xf0?\x00\x00\x00\x00\x00\x00\x00\x00\x00\x00\x00\x00\x00\x00\x00\x00\x00\x00\x00\x00\x00\x00\x00\x00\x00\x00\x00\x00\x00\x00\xf0?\x00\x00\x00\x00\x00\x00\x00\x00\x00\x00\x00\x00\x00\x00\x00\x00\x00\x00\x00\x00\x00\x00\x00\x00\x00\x00\x00\x00\x00\x00\xf0?'
p1416
tp1417
bsg52
g7
sg53
(dp1418
L244599384L
g1381
ssbsg53
(dp1419
L244599160L
g1378
ssg52
g7
sbsg244
I2
sg245
g172
sg53
(dp1420
L245715968L
g0
(g101
g2
Ntp1421
Rp1422
(dp1423
g50
I1
sg105
g0
(g106
g2
Ntp1424
Rp1425
(dp1426
g50
I1
sg110
g111
(g112
(I0
tp1427
g114
tp1428
Rp1429
(I1
(L2L
tp1430
g121
I00
S'\x00\x00\x00\x00\x00\x00\xf0\x7f\x00\x00\x00\x00\x00\x00\xf0\x7f'
p1431
tp1432
bsg53
(dp1433
L245715968L
g1422
ssg127
g111
(g112
(I0
tp1434
g114
tp1435
Rp1436
(I1
(L2L
L2L
tp1437
g121
I00
S'\x00\x00\x00\x00\x00\x00\x00\x00\x00\x00\x00\x00\x00\x00\x00\x00\x00\x00\x00\x00\x00\x00\xf0?\x00\x00\x00\x00\x00\x00\xf0?'
p1438
tp1439
bsg134
g111
(g112
(I0
tp1440
g114
tp1441
Rp1442
(I1
(L2L
L2L
tp1443
g121
I00
S'\x00\x00\x00\x00\x00\x00\x00\x00\x00\x00\x00\x00\x00\x00\x00\x00\x00\x00\x00\x00\x00\x00\xf0?\x00\x00\x00\x00\x00\x00\xf0?'
p1444
tp1445
bsg141
I01
sg52
g7
sbsg94
g1378
sg134
Nsg53
(dp1446
sg52
g7
sbssg52
g7
sbsL245717872L
g0
(g161
g2
Ntp1447
Rp1448
(dp1449
g50
I1
sg165
I2
sg166
g0
(g161
g2
Ntp1450
Rp1451
(dp1452
g50
I1
sg165
I2
sg166
g0
(g95
g2
Ntp1453
Rp1454
(dp1455
g50
I1
sg99
Nsg51
Nsg100
g0
(g106
g2
Ntp1456
Rp1457
(dp1458
g50
I1
sg110
g111
(g112
(I0
tp1459
g114
tp1460
Rp1461
(I1
(L2L
tp1462
g121
I00
S'\x00\x00\x00\x00\x00\x00\xf0\x7f\x00\x00\x00\x00\x00\x00\xf0\x7f'
p1463
tp1464
bsg53
(dp1465
L245717760L
g1454
ssg127
g111
(g112
(I0
tp1466
g114
tp1467
Rp1468
(I1
(L2L
L2L
tp1469
g121
I00
S'\x00\x00\x00\x00\x00\x00\x00\x00\x00\x00\x00\x00\x00\x00\x00\x00\x00\x00\x00\x00\x00\x00\xf0?\x00\x00\x00\x00\x00\x00\xf0?'
p1470
tp1471
bsg134
g111
(g112
(I0
tp1472
g114
tp1473
Rp1474
(I1
(L2L
L2L
tp1475
g121
I00
S'\x00\x00\x00\x00\x00\x00\x00\x00\x00\x00\x00\x00\x00\x00\x00\x00\x00\x00\x00\x00\x00\x00\xf0?\x00\x00\x00\x00\x00\x00\xf0?'
p1476
tp1477
bsg141
I01
sg52
g7
sbsg53
(dp1478
L245717816L
g1451
ssg52
g7
sbsg244
I2
sg245
g0
(g142
g2
Ntp1479
Rp1480
(dp1481
g50
I2
sg51
Nsg99
g111
(g112
(I0
tp1482
g114
tp1483
Rp1484
(I1
(L3L
L3L
tp1485
g121
I00
S'\x00\x00\x00\x00\x00\x00\xf0?\x00\x00\x00\x00\x00\x00\x00\x00\x00\x00\x00\x00\x00\x00\x00\x00\x00\x00\x00\x00\x00\x00\x00\x00\x00\x00\x00\x00\x00\x00\xf0?\x00\x00\x00\x00\x00\x00\x00\x00\x00\x00\x00\x00\x00\x00\x00\x00\x00\x00\x00\x00\x00\x00\x00\x00\x00\x00\x00\x00\x00\x00\xf0?'
p1486
tp1487
bsg52
g7
sg53
(dp1488
L245717816L
g1451
ssbsg53
(dp1489
L245717872L
g1448
ssg52
g7
sbsg244
I2
sg245
g172
sg53
(dp1490
L245717928L
g0
(g101
g2
Ntp1491
Rp1492
(dp1493
g50
I1
sg105
g0
(g106
g2
Ntp1494
Rp1495
(dp1496
g50
I1
sg110
g111
(g112
(I0
tp1497
g114
tp1498
Rp1499
(I1
(L2L
tp1500
g121
I00
S'\x00\x00\x00\x00\x00\x00\xf0\x7f\x00\x00\x00\x00\x00\x00\xf0\x7f'
p1501
tp1502
bsg53
(dp1503
L245717928L
g1492
ssg127
g111
(g112
(I0
tp1504
g114
tp1505
Rp1506
(I1
(L2L
L2L
tp1507
g121
I00
S'\x00\x00\x00\x00\x00\x00\x00\x00\x00\x00\x00\x00\x00\x00\x00\x00\x00\x00\x00\x00\x00\x00\xf0?\x00\x00\x00\x00\x00\x00\xf0?'
p1508
tp1509
bsg134
g111
(g112
(I0
tp1510
g114
tp1511
Rp1512
(I1
(L2L
L2L
tp1513
g121
I00
S'\x00\x00\x00\x00\x00\x00\x00\x00\x00\x00\x00\x00\x00\x00\x00\x00\x00\x00\x00\x00\x00\x00\xf0?\x00\x00\x00\x00\x00\x00\xf0?'
p1514
tp1515
bsg141
I01
sg52
g7
sbsg94
g1448
sg134
Nsg53
(dp1516
sg52
g7
sbssg52
g7
sbsL244774504L
g0
(g161
g2
Ntp1517
Rp1518
(dp1519
g50
I1
sg165
I2
sg166
g0
(g161
g2
Ntp1520
Rp1521
(dp1522
g50
I1
sg165
I2
sg166
g0
(g95
g2
Ntp1523
Rp1524
(dp1525
g50
I1
sg99
Nsg51
Nsg100
g0
(g106
g2
Ntp1526
Rp1527
(dp1528
g50
I1
sg110
g111
(g112
(I0
tp1529
g114
tp1530
Rp1531
(I1
(L2L
tp1532
g121
I00
S'\x00\x00\x00\x00\x00\x00\xf0\x7f\x00\x00\x00\x00\x00\x00\xf0\x7f'
p1533
tp1534
bsg53
(dp1535
L244774392L
g1524
ssg127
g111
(g112
(I0
tp1536
g114
tp1537
Rp1538
(I1
(L2L
L2L
tp1539
g121
I00
S'\x00\x00\x00\x00\x00\x00\x00\x00\x00\x00\x00\x00\x00\x00\x00\x00\x00\x00\x00\x00\x00\x00\xf0?\x00\x00\x00\x00\x00\x00\xf0?'
p1540
tp1541
bsg134
g111
(g112
(I0
tp1542
g114
tp1543
Rp1544
(I1
(L2L
L2L
tp1545
g121
I00
S'\x00\x00\x00\x00\x00\x00\x00\x00\x00\x00\x00\x00\x00\x00\x00\x00\x00\x00\x00\x00\x00\x00\xf0?\x00\x00\x00\x00\x00\x00\xf0?'
p1546
tp1547
bsg141
I01
sg52
g7
sbsg53
(dp1548
L244774448L
g1521
ssg52
g7
sbsg244
I2
sg245
g0
(g142
g2
Ntp1549
Rp1550
(dp1551
g50
I2
sg51
Nsg99
g111
(g112
(I0
tp1552
g114
tp1553
Rp1554
(I1
(L3L
L3L
tp1555
g121
I00
S'\x00\x00\x00\x00\x00\x00\xf0?\x00\x00\x00\x00\x00\x00\x00\x00\x00\x00\x00\x00\x00\x00\x00\x00\x00\x00\x00\x00\x00\x00\x00\x00\x00\x00\x00\x00\x00\x00\xf0?\x00\x00\x00\x00\x00\x00\x00\x00\x00\x00\x00\x00\x00\x00\x00\x00\x00\x00\x00\x00\x00\x00\x00\x00\x00\x00\x00\x00\x00\x00\xf0?'
p1556
tp1557
bsg52
g7
sg53
(dp1558
L244774448L
g1521
ssbsg53
(dp1559
L244774504L
g1518
ssg52
g7
sbsg244
I2
sg245
g172
sg53
(dp1560
L244774560L
g0
(g101
g2
Ntp1561
Rp1562
(dp1563
g50
I1
sg105
g0
(g106
g2
Ntp1564
Rp1565
(dp1566
g50
I1
sg110
g111
(g112
(I0
tp1567
g114
tp1568
Rp1569
(I1
(L2L
tp1570
g121
I00
S'\x00\x00\x00\x00\x00\x00\xf0\x7f\x00\x00\x00\x00\x00\x00\xf0\x7f'
p1571
tp1572
bsg53
(dp1573
L244774560L
g1562
ssg127
g111
(g112
(I0
tp1574
g114
tp1575
Rp1576
(I1
(L2L
L2L
tp1577
g121
I00
S'\x00\x00\x00\x00\x00\x00\x00\x00\x00\x00\x00\x00\x00\x00\x00\x00\x00\x00\x00\x00\x00\x00\xf0?\x00\x00\x00\x00\x00\x00\xf0?'
p1578
tp1579
bsg134
g111
(g112
(I0
tp1580
g114
tp1581
Rp1582
(I1
(L2L
L2L
tp1583
g121
I00
S'\x00\x00\x00\x00\x00\x00\x00\x00\x00\x00\x00\x00\x00\x00\x00\x00\x00\x00\x00\x00\x00\x00\xf0?\x00\x00\x00\x00\x00\x00\xf0?'
p1584
tp1585
bsg141
I01
sg52
g7
sbsg94
g1518
sg134
Nsg53
(dp1586
sg52
g7
sbssg52
g7
sbsL245715408L
g0
(g161
g2
Ntp1587
Rp1588
(dp1589
g50
I1
sg165
I2
sg166
g0
(g161
g2
Ntp1590
Rp1591
(dp1592
g50
I1
sg165
I2
sg166
g0
(g95
g2
Ntp1593
Rp1594
(dp1595
g50
I1
sg99
Nsg51
Nsg100
g0
(g106
g2
Ntp1596
Rp1597
(dp1598
g50
I1
sg110
g111
(g112
(I0
tp1599
g114
tp1600
Rp1601
(I1
(L2L
tp1602
g121
I00
S'\x00\x00\x00\x00\x00\x00\xf0\x7f\x00\x00\x00\x00\x00\x00\xf0\x7f'
p1603
tp1604
bsg53
(dp1605
L245715296L
g1594
ssg127
g111
(g112
(I0
tp1606
g114
tp1607
Rp1608
(I1
(L2L
L2L
tp1609
g121
I00
S'\x00\x00\x00\x00\x00\x00\x00\x00\x00\x00\x00\x00\x00\x00\x00\x00\x00\x00\x00\x00\x00\x00\xf0?\x00\x00\x00\x00\x00\x00\xf0?'
p1610
tp1611
bsg134
g111
(g112
(I0
tp1612
g114
tp1613
Rp1614
(I1
(L2L
L2L
tp1615
g121
I00
S'\x00\x00\x00\x00\x00\x00\x00\x00\x00\x00\x00\x00\x00\x00\x00\x00\x00\x00\x00\x00\x00\x00\xf0?\x00\x00\x00\x00\x00\x00\xf0?'
p1616
tp1617
bsg141
I01
sg52
g7
sbsg53
(dp1618
L245715352L
g1591
ssg52
g7
sbsg244
I2
sg245
g0
(g142
g2
Ntp1619
Rp1620
(dp1621
g50
I2
sg51
Nsg99
g111
(g112
(I0
tp1622
g114
tp1623
Rp1624
(I1
(L3L
L3L
tp1625
g121
I00
S'\x00\x00\x00\x00\x00\x00\xf0?\x00\x00\x00\x00\x00\x00\x00\x00\x00\x00\x00\x00\x00\x00\x00\x00\x00\x00\x00\x00\x00\x00\x00\x00\x00\x00\x00\x00\x00\x00\xf0?\x00\x00\x00\x00\x00\x00\x00\x00\x00\x00\x00\x00\x00\x00\x00\x00\x00\x00\x00\x00\x00\x00\x00\x00\x00\x00\x00\x00\x00\x00\xf0?'
p1626
tp1627
bsg52
g7
sg53
(dp1628
L245715352L
g1591
ssbsg53
(dp1629
L245715408L
g1588
ssg52
g7
sbsg244
I2
sg245
g172
sg53
(dp1630
L245715464L
g0
(g101
g2
Ntp1631
Rp1632
(dp1633
g50
I1
sg105
g0
(g106
g2
Ntp1634
Rp1635
(dp1636
g50
I1
sg110
g111
(g112
(I0
tp1637
g114
tp1638
Rp1639
(I1
(L2L
tp1640
g121
I00
S'\x00\x00\x00\x00\x00\x00\xf0\x7f\x00\x00\x00\x00\x00\x00\xf0\x7f'
p1641
tp1642
bsg53
(dp1643
L245715464L
g1632
ssg127
g111
(g112
(I0
tp1644
g114
tp1645
Rp1646
(I1
(L2L
L2L
tp1647
g121
I00
S'\x00\x00\x00\x00\x00\x00\x00\x00\x00\x00\x00\x00\x00\x00\x00\x00\x00\x00\x00\x00\x00\x00\xf0?\x00\x00\x00\x00\x00\x00\xf0?'
p1648
tp1649
bsg134
g111
(g112
(I0
tp1650
g114
tp1651
Rp1652
(I1
(L2L
L2L
tp1653
g121
I00
S'\x00\x00\x00\x00\x00\x00\x00\x00\x00\x00\x00\x00\x00\x00\x00\x00\x00\x00\x00\x00\x00\x00\xf0?\x00\x00\x00\x00\x00\x00\xf0?'
p1654
tp1655
bsg141
I01
sg52
g7
sbsg94
g1588
sg134
Nsg53
(dp1656
sg52
g7
sbssg52
g7
sbsL245715016L
g0
(g161
g2
Ntp1657
Rp1658
(dp1659
g50
I1
sg165
I2
sg166
g0
(g161
g2
Ntp1660
Rp1661
(dp1662
g50
I1
sg165
I2
sg166
g0
(g95
g2
Ntp1663
Rp1664
(dp1665
g50
I1
sg99
Nsg51
Nsg100
g0
(g106
g2
Ntp1666
Rp1667
(dp1668
g50
I1
sg110
g111
(g112
(I0
tp1669
g114
tp1670
Rp1671
(I1
(L2L
tp1672
g121
I00
S'\x00\x00\x00\x00\x00\x00\xf0\x7f\x00\x00\x00\x00\x00\x00\xf0\x7f'
p1673
tp1674
bsg53
(dp1675
L243933080L
g1664
ssg127
g111
(g112
(I0
tp1676
g114
tp1677
Rp1678
(I1
(L2L
L2L
tp1679
g121
I00
S'\x00\x00\x00\x00\x00\x00\x00\x00\x00\x00\x00\x00\x00\x00\x00\x00\x00\x00\x00\x00\x00\x00\xf0?\x00\x00\x00\x00\x00\x00\xf0?'
p1680
tp1681
bsg134
g111
(g112
(I0
tp1682
g114
tp1683
Rp1684
(I1
(L2L
L2L
tp1685
g121
I00
S'\x00\x00\x00\x00\x00\x00\x00\x00\x00\x00\x00\x00\x00\x00\x00\x00\x00\x00\x00\x00\x00\x00\xf0?\x00\x00\x00\x00\x00\x00\xf0?'
p1686
tp1687
bsg141
I01
sg52
g7
sbsg53
(dp1688
L243933136L
g1661
ssg52
g7
sbsg244
I2
sg245
g0
(g142
g2
Ntp1689
Rp1690
(dp1691
g50
I2
sg51
Nsg99
g111
(g112
(I0
tp1692
g114
tp1693
Rp1694
(I1
(L3L
L3L
tp1695
g121
I00
S'\x00\x00\x00\x00\x00\x00\xf0?\x00\x00\x00\x00\x00\x00\x00\x00\x00\x00\x00\x00\x00\x00\x00\x00\x00\x00\x00\x00\x00\x00\x00\x00\x00\x00\x00\x00\x00\x00\xf0?\x00\x00\x00\x00\x00\x00\x00\x00\x00\x00\x00\x00\x00\x00\x00\x00\x00\x00\x00\x00\x00\x00\x00\x00\x00\x00\x00\x00\x00\x00\xf0?'
p1696
tp1697
bsg52
g7
sg53
(dp1698
L243933136L
g1661
ssbsg53
(dp1699
L245715016L
g1658
ssg52
g7
sbsg244
I2
sg245
g172
sg53
(dp1700
L245715072L
g0
(g101
g2
Ntp1701
Rp1702
(dp1703
g50
I1
sg105
g0
(g106
g2
Ntp1704
Rp1705
(dp1706
g50
I1
sg110
g111
(g112
(I0
tp1707
g114
tp1708
Rp1709
(I1
(L2L
tp1710
g121
I00
S'\x00\x00\x00\x00\x00\x00\xf0\x7f\x00\x00\x00\x00\x00\x00\xf0\x7f'
p1711
tp1712
bsg53
(dp1713
L245715072L
g1702
ssg127
g111
(g112
(I0
tp1714
g114
tp1715
Rp1716
(I1
(L2L
L2L
tp1717
g121
I00
S'\x00\x00\x00\x00\x00\x00\x00\x00\x00\x00\x00\x00\x00\x00\x00\x00\x00\x00\x00\x00\x00\x00\xf0?\x00\x00\x00\x00\x00\x00\xf0?'
p1718
tp1719
bsg134
g111
(g112
(I0
tp1720
g114
tp1721
Rp1722
(I1
(L2L
L2L
tp1723
g121
I00
S'\x00\x00\x00\x00\x00\x00\x00\x00\x00\x00\x00\x00\x00\x00\x00\x00\x00\x00\x00\x00\x00\x00\xf0?\x00\x00\x00\x00\x00\x00\xf0?'
p1724
tp1725
bsg141
I01
sg52
g7
sbsg94
g1658
sg134
Nsg53
(dp1726
sg52
g7
sbssg52
g7
sbssg52
g7
sbsg58
g242
sg250
Nsg53
(dp1727
L244597760L
g0
(g161
g2
Ntp1728
Rp1729
(dp1730
g50
I2
sg165
I2
sg166
g169
sg244
I2
sg245
g0
(g153
g2
Ntp1731
Rp1732
(dp1733
g50
I1
sg99
Nsg157
g144
sg51
Nsg158
(I0
F0.09722222222222222
tp1734
sg52
g7
sg53
(dp1735
L244597760L
g1729
ssbsg53
(dp1736
sg52
g7
sbsL244466240L
g0
(g161
g2
Ntp1737
Rp1738
(dp1739
g50
I2
sg165
I2
sg166
g169
sg244
I2
sg245
g0
(g153
g2
Ntp1740
Rp1741
(dp1742
g50
I1
sg99
Nsg157
g144
sg51
Nsg158
(I0
F-0.09722222222222222
tp1743
sg52
g7
sg53
(dp1744
L244466240L
g1738
ssbsg53
(dp1745
sg52
g7
sbsL243931120L
g0
(g161
g2
Ntp1746
Rp1747
(dp1748
g50
I2
sg165
I2
sg166
g169
sg244
I2
sg245
g0
(g153
g2
Ntp1749
Rp1750
(dp1751
g50
I1
sg99
Nsg157
g144
sg51
Nsg158
(I0
F-0.07500000000000001
tp1752
sg52
g7
sg53
(dp1753
L243931120L
g1747
ssbsg53
(dp1754
sg52
g7
sbsL246440064L
g0
(g161
g2
Ntp1755
Rp1756
(dp1757
g50
I2
sg165
I2
sg166
g169
sg244
I2
sg245
g0
(g153
g2
Ntp1758
Rp1759
(dp1760
g50
I1
sg99
Nsg157
g144
sg51
Nsg158
(I0
F0.09722222222222222
tp1761
sg52
g7
sg53
(dp1762
L246440064L
g1756
ssbsg53
(dp1763
sg52
g7
sbsL243931344L
g0
(g161
g2
Ntp1764
Rp1765
(dp1766
g50
I2
sg165
I2
sg166
g169
sg244
I2
sg245
g0
(g153
g2
Ntp1767
Rp1768
(dp1769
g50
I1
sg99
Nsg157
g144
sg51
Nsg158
(I0
F0.07500000000000001
tp1770
sg52
g7
sg53
(dp1771
L243931344L
g1765
ssbsg53
(dp1772
sg52
g7
sbsL244468592L
g0
(g161
g2
Ntp1773
Rp1774
(dp1775
g50
I2
sg165
I2
sg166
g169
sg244
I2
sg245
g0
(g153
g2
Ntp1776
Rp1777
(dp1778
g50
I1
sg99
Nsg157
g144
sg51
Nsg158
(I0
F-0.07500000000000001
tp1779
sg52
g7
sg53
(dp1780
L244468592L
g1774
ssbsg53
(dp1781
sg52
g7
sbsL244599216L
g163
sL244468312L
g0
(g161
g2
Ntp1782
Rp1783
(dp1784
g50
I2
sg165
I2
sg166
g169
sg244
I2
sg245
g0
(g153
g2
Ntp1785
Rp1786
(dp1787
g50
I1
sg99
Nsg157
g144
sg51
Nsg158
(I0
F0.07500000000000001
tp1788
sg52
g7
sg53
(dp1789
L244468312L
g1783
ssbsg53
(dp1790
sg52
g7
sbssg52
g7
sbsg244
I2
sg245
g155
sg53
(dp1791
sg52
g7
sbssbsL246443872L
g1759
sL244597144L
g1732
sL246386984L
g103
sL244466296L
g1741
sL243931848L
g874
sL243929832L
g319
sL244468536L
g1777
sL244598320L
g274
sL243929608L
g310
sL244468648L
g1786
sL244597704L
g301
sL244596808L
g283
sL244598824L
g265
sL243931064L
g1750
sL243931288L
g1768
sL244600392L
g292
sL244600056L
g256
ssbsg134
g111
(g112
(I0
tp1792
g114
tp1793
Rp1794
(I1
(L2L
L2L
tp1795
g121
I00
S'\x00\x00\x00\x00\x00\x00\x00\x00\x00\x00\x00\x00\x00\x00\x00\x00\x00\x00\x00\x00\x00\x00\x84@\x00\x00\x00\x00\x00\x00~@'
p1796
tp1797
bsg53
(dp1798
L246387768L
g97
ssg52
g7
sbsg53
(dp1799
L245568344L
g175
ssg52
g7
sbsS'_us_dashes'
p1800
(NNtp1801
sS'_capstyle'
p1802
Vbutt
p1803
sS'_url'
p1804
Nsg26
NsS'_axes'
p1805
Nsg35
Nsbsg43
Nsg70
NsV_restore_to_pylab
p1806
I01
sS'images'
p1807
(lp1808
sS'_suptitle'
p1809
NsS'dpi_scale_trans'
p1810
g144
sS'number'
p1811
I2
sS'callbacks'
p1812
g0
(cmatplotlib.cbook
CallbackRegistry
p1813
g2
Ntp1814
Rp1815
sg76
NsS'_tight'
p1816
I00
sg68
I01
sS'bbox'
p1817
g103
sg82
g0
(g83
g84
((lp1818
(lp1819
tp1820
tp1821
Rp1822
sg90
I0
sS'patches'
p1823
(lp1824
sS'legends'
p1825
(lp1826
sS'suppressComposite'
p1827
Nsg91
I00
sg93
NsS'_axstack'
p1828
g0
(cmatplotlib.figure
AxesStack
p1829
g2
Ntp1830
Rp1831
(dp1832
S'_default'
p1833
NsS'_elements'
p1834
(lp1835
(((I1
I1
I1
tp1836
(ttp1837
(I1
g0
(cmatplotlib.axes._subplots
_PicklableSubplotClassConstructor
p1838
g2
Ntp1839
Rp1840
(cmatplotlib.axes._axes
Axes
p1841
tp1842
Rp1843
(dp1844
S'transLimits'
p1845
g206
sS'_get_patches_for_fill'
p1846
g0
(cmatplotlib.axes._base
_process_plot_var_args
p1847
g2
Ntp1848
Rp1849
(dp1850
Vaxes
p1851
g1843
sVcommand
p1852
Vfill
p1853
sbsS'_xcid'
p1854
I1
sg6
V
p1855
sS'legend_'
p1856
Nsg12
(lp1857
sS'_frameon'
p1858
I01
sS'_autoscaleYon'
p1859
I01
sg14
I01
sg15
(lp1860
sg20
I01
sS'tables'
p1861
(lp1862
sg1823
(lp1863
sS'title'
p1864
g0
(cmatplotlib.text
Text
p1865
g2
Ntp1866
Rp1867
(dp1868
g6
g7
sg8
I01
sg9
g4
sg10
NsS'_fontproperties'
p1869
g0
(cmatplotlib.font_manager
FontProperties
p1870
g2
Ntp1871
Rp1872
(dp1873
S'_family'
p1874
(lp1875
Vsans-serif
p1876
asS'_file'
p1877
NsS'_variant'
p1878
Vnormal
p1879
sS'_slant'
p1880
g1879
sS'_size'
p1881
F12.0
sS'_weight'
p1882
I400
sS'_stretch'
p1883
g1879
sbsg43
Nsg17
g18
sS'_multialignment'
p1884
Nsg20
I01
sg23
Nsg57
F1.0
sg58
F0.5
sg25
Nsg26
Nsg11
Nsg29
I00
sg30
I00
sg31
(dp1885
sS'_renderer'
p1886
Nsg33
I00
sg1805
g1843
sg70
Nsg1804
NsS'_rotation_mode'
p1887
Nsg34
Nsg76
Nsg68
I01
sS'_verticalalignment'
p1888
Vbaseline
p1889
sS'_text'
p1890
V
p1891
sS'_bbox_patch'
p1892
Nsg82
g0
(g83
g84
((lp1893
(lp1894
tp1895
tp1896
Rp1897
sg90
I0
sS'_rotation'
p1898
Nsg91
I01
sg93
NsS'_linespacing'
p1899
F1.2
sg94
g879
sS'_usetex'
p1900
I00
sS'_wrap'
p1901
I00
sg44
NsS'_color'
p1902
Vk
p1903
sS'_horizontalalignment'
p1904
Vcenter
p1905
sg35
NsbsS'_current_image'
p1906
NsS'mouseover_set'
p1907
c__builtin__
set
p1908
((lp1909
tp1910
Rp1911
sg11
NsS'_cursorProps'
p1912
(I1
(F0.0
F0.0
F0.0
I1
tp1913
tp1914
sS'numRows'
p1915
I1
sS'collections'
p1916
(lp1917
sg1805
g1843
sg31
(dp1918
sg33
I00
sS'containers'
p1919
(lp1920
sg30
I00
sg70
NsS'_get_lines'
p1921
g0
(g1847
g2
Ntp1922
Rp1923
(dp1924
g1851
g1843
sg1852
Vplot
p1925
sbsS'_aspect'
p1926
Vauto
p1927
sS'fmt_xdata'
p1928
Nsg1812
g0
(g1813
g2
Ntp1929
Rp1930
sg76
Nsg77
g60
sg68
I01
sg1817
g175
sS'ignore_existing_data_limits'
p1931
I00
sg25
Nsg90
I0
sg91
I00
sS'_left_title'
p1932
g0
(g1865
g2
Ntp1933
Rp1934
(dp1935
g6
g7
sg8
I01
sg9
g4
sg10
Nsg1869
g0
(g1870
g2
Ntp1936
Rp1937
(dp1938
g1874
g1875
sg1877
Nsg1878
g1879
sg1880
g1879
sg1881
F12.0
sg1882
I400
sg1883
g1879
sbsg43
Nsg17
g18
sg1884
Nsg20
I01
sg23
Nsg57
F1.0
sg58
F0.0
sg25
Nsg26
Nsg11
Nsg29
I00
sg30
I00
sg31
(dp1939
sg1886
Nsg33
I00
sg1805
g1843
sg70
Nsg1804
Nsg1887
Nsg34
Nsg76
Nsg68
I01
sg1888
g1889
sg1890
V
p1940
sg1892
Nsg82
g0
(g83
g84
((lp1941
(lp1942
tp1943
tp1944
Rp1945
sg90
I0
sg1898
Nsg91
I01
sg93
Nsg1899
F1.2
sg94
g883
sg1900
I00
sg1901
I00
sg44
Nsg1902
g1903
sg1904
Vleft
p1946
sg35
NsbsS'_right_title'
p1947
g0
(g1865
g2
Ntp1948
Rp1949
(dp1950
g6
g7
sg8
I01
sg9
g4
sg10
Nsg1869
g0
(g1870
g2
Ntp1951
Rp1952
(dp1953
g1874
g1875
sg1877
Nsg1878
g1879
sg1880
g1879
sg1881
F12.0
sg1882
I400
sg1883
g1879
sbsg43
Nsg17
g18
sg1884
Nsg20
I01
sg23
Nsg57
F1.0
sg58
F1.0
sg25
Nsg26
Nsg11
Nsg29
I00
sg30
I00
sg31
(dp1954
sg1886
Nsg33
I00
sg1805
g1843
sg70
Nsg1804
Nsg1887
Nsg34
Nsg76
Nsg68
I01
sg1888
g1889
sg1890
V
p1955
sg1892
Nsg82
g0
(g83
g84
((lp1956
(lp1957
tp1958
tp1959
Rp1960
sg90
I0
sg1898
Nsg91
I01
sg93
Nsg1899
F1.2
sg94
g871
sg1900
I00
sg1901
I00
sg44
Nsg1902
g1903
sg1904
Vright
p1961
sg35
NsbsS'transScale'
p1962
g236
sg94
NsS'axison'
p1963
I01
sS'patch'
p1964
g0
(g37
g2
Ntp1965
Rp1966
(dp1967
g6
g7
sg41
F1.0
sg42
I01
sg9
g4
sg8
I01
sg10
Nsg43
Nsg17
g18
sg44
Nsg20
I01
sg45
g0
(g46
g2
Ntp1968
Rp1969
(dp1970
g50
I1
sg51
Nsg52
g7
sg53
(dp1971
sbsg55
(F0.0
F0.0
F0.0
F0.0
tp1972
sg23
Nsg57
F0.0
sg58
F0.0
sg25
Nsg59
VNone
p1973
sg11
Nsg29
I00
sg30
I00
sg31
(dp1974
sg62
g804
sg33
I00
sg67
Nsg68
I01
sg69
F0.0
sg70
Nsg71
F1.0
sg34
Nsg72
Nsg73
I01
sg74
Nsg75
g60
sg76
Nsg77
g56
sg78
g79
sg80
g81
sg82
g0
(g83
g84
((lp1975
(lp1976
tp1977
tp1978
Rp1979
sg90
I0
sg91
I01
sg92
F0.0
sg93
Nsg94
g172
sg1800
(NNtp1980
sg1802
g1803
sg1804
Nsg26
Nsg1805
Nsg35
NsbsS'viewLim'
p1981
g213
sg17
g18
sS'_subplotspec'
p1982
g0
(cmatplotlib.gridspec
SubplotSpec
p1983
g2
Ntp1984
Rp1985
(dp1986
S'num1'
p1987
I0
sS'num2'
p1988
NsS'_gridspec'
p1989
g0
(cmatplotlib.gridspec
GridSpec
p1990
g2
Ntp1991
Rp1992
(dp1993
S'_nrows'
p1994
I1
sS'right'
p1995
NsS'_col_width_ratios'
p1996
NsS'bottom'
p1997
NsS'top'
p1998
NsS'wspace'
p1999
NsS'_ncols'
p2000
I1
sS'hspace'
p2001
NsS'_row_height_ratios'
p2002
NsS'left'
p2003
NsbsbsS'_adjustable'
p2004
Vbox
p2005
sg9
g4
sS'titleOffsetTrans'
p2006
g874
sS'_yaxis_transform'
p2007
g248
sS'_gridOn'
p2008
I00
sg10
NsS'colNum'
p2009
I0
sg43
Nsg1807
(lp2010
sS'_autoscaleXon'
p2011
I01
sS'_xmargin'
p2012
F0.05
sS'rowNum'
p2013
I0
sS'_position'
p2014
g178
sS'_rasterization_zorder'
p2015
NsS'_cachedRenderer'
p2016
NsS'_navigate'
p2017
I01
sg23
NsS'_originalPosition'
p2018
g0
(g106
g2
Ntp2019
Rp2020
(dp2021
g50
I1
sg110
g111
(g112
(I0
tp2022
g114
tp2023
Rp2024
(I1
(L2L
tp2025
g121
I00
S'\x00\x00\x00\x00\x00\x00\xf0\x7f\x00\x00\x00\x00\x00\x00\xf0\x7f'
p2026
tp2027
bsg53
(dp2028
sg127
g111
(g112
(I0
tp2029
g114
tp2030
Rp2031
(I1
(L2L
L2L
tp2032
g121
I00
S'\x00\x00\x00\x00\x00\x00\xc0?(\\\x8f\xc2\xf5(\xbc?\xcd\xcc\xcc\xcc\xcc\xcc\xec?)\\\x8f\xc2\xf5(\xec?'
p2033
tp2034
bsg134
g111
(g112
(I0
tp2035
g114
tp2036
Rp2037
(I1
(L2L
L2L
tp2038
g121
I00
S'\x00\x00\x00\x00\x00\x00\xc0?(\\\x8f\xc2\xf5(\xbc?\xcd\xcc\xcc\xcc\xcc\xcc\xec?)\\\x8f\xc2\xf5(\xec?'
p2039
tp2040
bsg141
I01
sg52
g7
sbsg26
NsS'_xaxis_transform'
p2041
g169
sg29
I00
sS'figbox'
p2042
g178
sS'xaxis'
p2043
g0
(cmatplotlib.axis
XAxis
p2044
g2
Ntp2045
Rp2046
(dp2047
g6
g7
sS'major'
p2048
g0
(cmatplotlib.axis
Ticker
p2049
g2
Ntp2050
Rp2051
(dp2052
S'locator'
p2053
g0
(cmatplotlib.ticker
AutoLocator
p2054
g2
Ntp2055
Rp2056
(dp2057
S'_min_n_ticks'
p2058
I2
sS'_symmetric'
p2059
I00
sS'_nbins'
p2060
Vauto
p2061
sS'_steps'
p2062
g111
(g112
(I0
tp2063
g114
tp2064
Rp2065
(I1
(L5L
tp2066
g121
I00
S'\x00\x00\x00\x00\x00\x00\xf0?\x00\x00\x00\x00\x00\x00\x00@\x00\x00\x00\x00\x00\x00\x04@\x00\x00\x00\x00\x00\x00\x14@\x00\x00\x00\x00\x00\x00$@'
p2067
tp2068
bsS'_prune'
p2069
NsS'_extended_steps'
p2070
g111
(g112
(I0
tp2071
g114
tp2072
Rp2073
(I1
(L10L
tp2074
g121
I00
S'\x9a\x99\x99\x99\x99\x99\xb9?\x9a\x99\x99\x99\x99\x99\xc9?\x00\x00\x00\x00\x00\x00\xd0?\x00\x00\x00\x00\x00\x00\xe0?\x00\x00\x00\x00\x00\x00\xf0?\x00\x00\x00\x00\x00\x00\x00@\x00\x00\x00\x00\x00\x00\x04@\x00\x00\x00\x00\x00\x00\x14@\x00\x00\x00\x00\x00\x00$@\x00\x00\x00\x00\x00\x004@'
p2075
tp2076
bsS'_integer'
p2077
I00
sS'axis'
p2078
g2046
sbsS'formatter'
p2079
g0
(cmatplotlib.ticker
ScalarFormatter
p2080
g2
Ntp2081
Rp2082
(dp2083
S'_powerlimits'
p2084
(lp2085
I-7
aI7
asS'orderOfMagnitude'
p2086
I0
sS'_useOffset'
p2087
I01
sS'_useLocale'
p2088
I00
sS'format'
p2089
g7
sS'_useMathText'
p2090
I00
sS'_offset_threshold'
p2091
I4
sS'offset'
p2092
I0
sg1900
I00
sS'_scientific'
p2093
I01
sg2078
g2046
sbsbsS'isDefault_label'
p2094
I01
sS'_scale'
p2095
g0
(cmatplotlib.scale
LinearScale
p2096
g2
Ntp2097
Rp2098
sg9
g4
sg8
I01
sS'_gridOnMinor'
p2099
I00
sg10
Nsg43
NsS'_smart_bounds'
p2100
I00
sg17
g18
sg20
I01
sg23
NsS'offsetText'
p2101
g0
(g1865
g2
Ntp2102
Rp2103
(dp2104
g6
g7
sg8
I01
sg9
g4
sg10
Nsg1869
g0
(g1870
g2
Ntp2105
Rp2106
(dp2107
g1874
(lp2108
g1876
asg1877
Nsg1878
g1879
sg1880
g1879
sg1881
F10.0
sg1882
I400
sg1883
g1879
sbsg43
Nsg17
g18
sg1884
Nsg20
I01
sg23
Nsg57
I0
sg58
I1
sg25
Nsg26
Nsg11
Nsg29
I00
sg30
I00
sg31
(dp2109
sg1886
Nsg33
I00
sg1805
Nsg70
Nsg1804
Nsg1887
Nsg34
Nsg76
Nsg68
I01
sg1888
Vtop
p2110
sg1890
V
p2111
sg1892
Nsg82
g0
(g83
g84
((lp2112
(lp2113
tp2114
tp2115
Rp2116
sg90
I0
sg1898
Nsg91
I01
sg93
Nsg1899
F1.2
sg94
g419
sg1900
I00
sg1901
I00
sg44
Nsg1902
g1903
sg1904
Vright
p2117
sg35
Nsbsg25
Nsg26
Nsg11
NsS'label'
p2118
g0
(g1865
g2
Ntp2119
Rp2120
(dp2121
g6
g7
sg8
I01
sg9
g4
sg10
Nsg1869
g0
(g1870
g2
Ntp2122
Rp2123
(dp2124
g1874
(lp2125
g1876
asg1877
Nsg1878
g1879
sg1880
g1879
sg1881
F10.0
sg1882
I400
sg1883
g1879
sbsg43
Nsg17
g18
sg1884
Nsg20
I01
sg23
Nsg57
I0
sg58
F0.5
sg25
Nsg26
Nsg11
Nsg29
I00
sg30
I00
sg31
(dp2126
sg1886
Nsg33
I00
sg1805
Nsg70
Nsg1804
Nsg1887
Nsg34
Nsg76
Nsg68
I01
sg1888
Vtop
p2127
sg1890
V
p2128
sg1892
Nsg82
g0
(g83
g84
((lp2129
(lp2130
tp2131
tp2132
Rp2133
sg90
I0
sg1898
Nsg91
I01
sg93
Nsg1899
F1.2
sg94
g427
sg1900
I00
sg1901
I00
sg44
Nsg1902
g1903
sg1904
Vcenter
p2134
sg35
Nsbsg29
I00
sS'isDefault_majfmt'
p2135
I01
sg30
I00
sg31
(dp2136
sS'units'
p2137
Nsg33
I00
sS'minor'
p2138
g0
(g2049
g2
Ntp2139
Rp2140
(dp2141
g2053
g0
(cmatplotlib.ticker
NullLocator
p2142
g2
Ntp2143
Rp2144
(dp2145
g2078
g2046
sbsg2079
g0
(cmatplotlib.ticker
NullFormatter
p2146
g2
Ntp2147
Rp2148
(dp2149
g2078
g2046
sbsbsg1805
g1843
sS'_major_tick_kw'
p2150
(dp2151
Vtick1On
p2152
I01
sVgridOn
p2153
I00
sVtick2On
p2154
I00
ssS'isDefault_minloc'
p2155
I01
sg70
g1002
sg34
NsS'_gridOnMajor'
p2156
I00
sS'_lastNumMinorTicks'
p2157
I1
sS'labelpad'
p2158
F4.0
sS'majorTicks'
p2159
(lp2160
g0
(cmatplotlib.axis
XTick
p2161
g2
Ntp2162
Rp2163
(dp2164
g6
g7
sg41
F0.8
sg9
g4
sS'tick1On'
p2165
I01
sg8
I01
sg10
Nsg90
I0
sg43
NsS'_pad'
p2166
F7.0
sS'_labelcolor'
p2167
g1903
sS'gridOn'
p2168
I00
sg1881
F3.5
sg17
g18
sS'_tickdir'
p2169
Vout
p2170
sg2118
g0
(g1865
g2
Ntp2171
Rp2172
(dp2173
g6
g7
sg8
I01
sg9
g4
sg10
Nsg1869
g0
(g1870
g2
Ntp2174
Rp2175
(dp2176
g1874
(lp2177
g1876
asg1877
Nsg1878
g1879
sg1880
g1879
sg1881
F10.0
sg1882
I400
sg1883
g1879
sbsg43
Nsg17
g18
sg1884
Nsg20
I01
sg23
Nsg57
I0
sg58
I0
sg25
Nsg26
Nsg11
Nsg29
I00
sg30
I00
sg31
(dp2178
sg1886
Nsg33
I00
sg1805
Nsg70
Nsg1804
Nsg1887
Nsg34
Nsg76
Nsg68
I01
sg1888
Vtop
p2179
sg1890
V
p2180
sg1892
Nsg82
g0
(g83
g84
((lp2181
(lp2182
tp2183
tp2184
Rp2185
sg90
I0
sg1898
Nsg91
I01
sg93
Nsg1899
F1.2
sg94
g163
sg1900
I00
sg1901
I00
sg44
Nsg1902
g1903
sg1904
Vcenter
p2186
sg35
Nsbsg20
I01
sg23
NsS'label2On'
p2187
I00
sg25
Nsg26
Nsg11
NsS'tick2On'
p2188
I00
sg29
I00
sg30
I00
sg31
(dp2189
sS'_tickmarkers'
p2190
(I3
I2
tp2191
sg33
I00
sS'_zorder'
p2192
F2.01
sg1805
g1843
sS'label1On'
p2193
I01
sg70
g1702
sg1804
NsS'label1'
p2194
g2172
sS'label2'
p2195
g0
(g1865
g2
Ntp2196
Rp2197
(dp2198
g6
g7
sg8
I01
sg9
g4
sg10
Nsg1869
g0
(g1870
g2
Ntp2199
Rp2200
(dp2201
g1874
(lp2202
g1876
asg1877
Nsg1878
g1879
sg1880
g1879
sg1881
F10.0
sg1882
I400
sg1883
g1879
sbsg43
Nsg17
g18
sg1884
Nsg20
I01
sg23
Nsg57
I1
sg58
I0
sg25
Nsg26
Nsg11
Nsg29
I00
sg30
I00
sg31
(dp2203
sg1886
Nsg33
I00
sg1805
Nsg70
Nsg1804
Nsg1887
Nsg34
Nsg76
Nsg68
I01
sg1888
Vbottom
p2204
sg1890
V
p2205
sg1892
Nsg82
g0
(g83
g84
((lp2206
(lp2207
tp2208
tp2209
Rp2210
sg90
I0
sg1898
Nsg91
I01
sg93
Nsg1899
F1.2
sg94
g1729
sg1900
I00
sg1901
I00
sg44
Nsg1902
g1903
sg1904
Vcenter
p2211
sg35
Nsbsg76
NsS'_loc'
p2212
I0
sg68
I01
sg82
g0
(g83
g84
((lp2213
(lp2214
tp2215
tp2216
Rp2217
sS'_base_pad'
p2218
F3.5
sS'tick1line'
p2219
g0
(cmatplotlib.lines
Line2D
p2220
g2
Ntp2221
Rp2222
(dp2223
g6
g7
sS'_dashcapstyle'
p2224
Vbutt
p2225
sS'_linestyles'
p2226
Nsg20
I01
sS'_x_filled'
p2227
NsS'ind_offset'
p2228
I0
sg57
Nsg58
Nsg25
Nsg11
Nsg30
I00
sg31
(dp2229
sg33
I00
sg1805
NsS'_markeredgewidth'
p2230
F0.8
sS'_dashSeq'
p2231
NsS'_markerfacecoloralt'
p2232
Vnone
p2233
sS'_markeredgecolor'
p2234
Vauto
p2235
sg76
Nsg68
I01
sS'_xorig'
p2236
(I0
tp2237
sg90
I0
sg91
I01
sS'_invalidy'
p2238
I01
sS'_invalidx'
p2239
I01
sg94
g169
sS'_us_dashSeq'
p2240
NsS'zorder'
p2241
F2.01
sg1902
g1903
sS'pickradius'
p2242
I5
sg9
g4
sS'verticalOffset'
p2243
Nsg10
Nsg43
Nsg17
g18
sS'_solidjoinstyle'
p2244
Vround
p2245
sg23
Nsg26
Nsg29
I00
sS'_markevery'
p2246
Nsg35
NsS'_transformed_path'
p2247
NsS'_marker'
p2248
g0
(cmatplotlib.markers
MarkerStyle
p2249
g2
Ntp2250
Rp2251
(dp2252
g2248
I3
sS'_alt_path'
p2253
NsS'_snap_threshold'
p2254
F1.0
sg94
g0
(g142
g2
Ntp2255
Rp2256
(dp2257
g50
I2
sg51
Nsg99
g111
(g112
(I0
tp2258
g114
tp2259
Rp2260
(I1
(L3L
L3L
tp2261
g121
I00
S'\x00\x00\x00\x00\x00\x00\xf0?\x00\x00\x00\x00\x00\x00\x00\x00\x00\x00\x00\x00\x00\x00\x00\x00\x00\x00\x00\x00\x00\x00\x00\x00\x00\x00\x00\x00\x00\x00\xf0\xbf\x00\x00\x00\x00\x00\x00\x00\x00\x00\x00\x00\x00\x00\x00\x00\x00\x00\x00\x00\x00\x00\x00\x00\x00\x00\x00\x00\x00\x00\x00\xf0?'
p2262
tp2263
bsg52
g7
sg53
(dp2264
sbsS'_filled'
p2265
I00
sS'_fillstyle'
p2266
Vfull
p2267
sS'_alt_transform'
p2268
Nsg1802
Vbutt
p2269
sg78
Vround
p2270
sS'_path'
p2271
g0
(cmatplotlib.path
Path
p2272
g2
Ntp2273
Rp2274
(dp2275
S'_should_simplify'
p2276
I00
sS'_codes'
p2277
NsS'_vertices'
p2278
g111
(g112
(I0
tp2279
g114
tp2280
Rp2281
(I1
(L2L
L2L
tp2282
g121
I00
S'\x00\x00\x00\x00\x00\x00\x00\x80\x00\x00\x00\x00\x00\x00\x00\x00\x00\x00\x00\x00\x00\x00\x00\x80\x00\x00\x00\x00\x00\x00\xf0?'
p2283
tp2284
bsS'_readonly'
p2285
I00
sS'_simplify_threshold'
p2286
F0.1111111111111111
sS'_interpolation_steps'
p2287
I1
sS'_has_nonfinite'
p2288
I00
sbsbsS'_markerfacecolor'
p2289
Vauto
p2290
sg70
Nsg34
Nsg73
I01
sS'_xy'
p2291
Nsg80
VNone
p2292
sg82
g0
(g83
g84
((lp2293
(lp2294
tp2295
tp2296
Rp2297
sS'_subslice'
p2298
I00
sS'_drawstyle'
p2299
Vdefault
p2300
sS'_solidcapstyle'
p2301
Vprojecting
p2302
sS'_us_dashOffset'
p2303
Nsg93
NsS'_dashjoinstyle'
p2304
g2245
sS'_markersize'
p2305
F3.5
sg8
I01
sS'_dashOffset'
p2306
Nsg44
Nsg1804
NsS'_yorig'
p2307
(I0
tp2308
sg69
F1.5
sg2271
Nsbsg91
I00
sS'gridline'
p2309
g0
(g2220
g2
Ntp2310
Rp2311
(dp2312
g6
g7
sg8
I01
sg2301
g2302
sg9
g4
sg2224
g2225
sg2226
Nsg10
Nsg43
Nsg17
g18
sg2244
g2245
sg20
I01
sg2227
Nsg23
Nsg57
g111
(g112
(I0
tp2313
g114
tp2314
Rp2315
(I1
(L2L
tp2316
g121
I00
S'\x00\x00\x00\x00\x00\x00\x00\x00\x00\x00\x00\x00\x00\x00\xf0?'
p2317
tp2318
bsg58
g111
(g112
(I0
tp2319
g114
tp2320
Rp2321
(I1
(L2L
tp2322
g121
I00
S'\x00\x00\x00\x00\x00\x00\x00\x00\x00\x00\x00\x00\x00\x00\x00\x00'
p2323
tp2324
bsg25
Nsg26
Nsg11
Nsg2236
(F0.0
F0.0
tp2325
sg29
I00
sg2246
Nsg30
I00
sg31
(dp2326
sg2243
Nsg33
I00
sg2298
I00
sg1805
Nsg2247
Nsg2230
F1.0
sg2289
g2290
sg2231
Nsg1902
V#b0b0b0
p2327
sg2248
g0
(g2249
g2
Ntp2328
Rp2329
(dp2330
g2248
VNone
p2331
sg2253
Nsg2254
Nsg94
g0
(g46
g2
Ntp2332
Rp2333
(dp2334
g50
I1
sg51
Nsg52
g7
sg53
(dp2335
sbsg2265
I00
sg2266
g2267
sg2268
Nsg1802
g2269
sg78
g2270
sg2271
g0
(g2272
g2
Ntp2336
Rp2337
(dp2338
g2276
I00
sg2277
Nsg2278
g111
(g112
(I0
tp2339
g114
tp2340
Rp2341
(I1
(L0L
L2L
tp2342
g121
I00
S''
p2343
tp2344
bsg2285
I00
sg2286
F0.1111111111111111
sg2287
I1
sg2288
I00
sbsbsg34
Nsg2232
g2233
sg73
I01
sg2234
g2235
sg76
Nsg2305
F0.0
sg68
I01
sg2291
g111
(g112
(I0
tp2345
g114
tp2346
Rp2347
(I1
(L2L
L2L
tp2348
g121
I00
S'\x00\x00\x00\x00\x00\x00\x00\x00\x00\x00\x00\x00\x00\x00\x00\x00\x00\x00\x00\x00\x00\x00\x00\x00\x00\x00\x00\x00\x00\x00\xf0?'
p2349
tp2350
bsg80
V-
p2351
sg82
g0
(g83
g84
((lp2352
(lp2353
tp2354
tp2355
Rp2356
sg90
I0
sg2299
g2300
sg2228
I0
sg2303
Nsg2242
I5
sg91
I01
sg93
F1.0
sg2304
g2245
sg2239
I00
sg94
g169
sg2306
Nsg2240
Nsg2238
I00
sg44
Nsg1804
Nsg2307
(I0
F1.0
tp2357
sg70
g1632
sg69
F0.8
sg35
Nsg2271
g0
(g2272
g2
Ntp2358
Rp2359
(dp2360
g2276
I00
sg2277
Nsg2278
g2347
sg2285
I00
sg2286
F0.1111111111111111
sg2287
I180
sg2288
I00
sbsbsg93
Nsg34
NsS'tick2line'
p2361
g0
(g2220
g2
Ntp2362
Rp2363
(dp2364
g6
g7
sg2224
g2225
sg2226
Nsg20
I01
sg2227
Nsg2228
I0
sg57
Nsg58
Nsg25
Nsg11
Nsg30
I00
sg31
(dp2365
sg33
I00
sg1805
Nsg2230
F0.8
sg2231
Nsg2232
g2233
sg2234
g2235
sg76
Nsg68
I01
sg2236
(I0
tp2366
sg90
I0
sg91
I01
sg2238
I01
sg2239
I01
sg94
g169
sg2240
Nsg2241
F2.01
sg1902
g1903
sg2242
I5
sg9
g4
sg2243
Nsg10
Nsg43
Nsg17
g18
sg2244
g2245
sg23
Nsg26
Nsg29
I00
sg2246
Nsg35
Nsg2247
Nsg2248
g0
(g2249
g2
Ntp2367
Rp2368
(dp2369
g2248
I2
sg2253
Nsg2254
F1.0
sg94
g0
(g142
g2
Ntp2370
Rp2371
(dp2372
g50
I2
sg51
Nsg99
g111
(g112
(I0
tp2373
g114
tp2374
Rp2375
(I1
(L3L
L3L
tp2376
g121
I00
S'\x00\x00\x00\x00\x00\x00\xf0?\x00\x00\x00\x00\x00\x00\x00\x00\x00\x00\x00\x00\x00\x00\x00\x00\x00\x00\x00\x00\x00\x00\x00\x00\x00\x00\x00\x00\x00\x00\xf0?\x00\x00\x00\x00\x00\x00\x00\x00\x00\x00\x00\x00\x00\x00\x00\x00\x00\x00\x00\x00\x00\x00\x00\x00\x00\x00\x00\x00\x00\x00\xf0?'
p2377
tp2378
bsg52
g7
sg53
(dp2379
sbsg2265
I00
sg2266
g2267
sg2268
Nsg1802
g2269
sg78
g2270
sg2271
g2274
sbsg2289
g2290
sg70
Nsg34
Nsg73
I01
sg2291
Nsg80
VNone
p2380
sg82
g0
(g83
g84
((lp2381
(lp2382
tp2383
tp2384
Rp2385
sg2298
I00
sg2299
g2300
sg2301
g2302
sg2303
Nsg93
Nsg2304
g2245
sg2305
F3.5
sg8
I01
sg2306
Nsg44
Nsg1804
Nsg2307
(I1
tp2386
sg69
F1.5
sg2271
Nsbsg94
NsS'_labelsize'
p2387
Vmedium
p2388
sS'_name'
p2389
Vxtick
p2390
sg44
Nsg1902
g1903
sg35
Nsbag0
(g2161
g2
Ntp2391
Rp2392
(dp2393
g6
g7
sg41
F0.8
sg9
g4
sg2165
I01
sg8
I01
sg10
Nsg90
I0
sg43
Nsg2166
F7.0
sg2167
g1903
sg2168
I00
sg1881
F3.5
sg17
g18
sg2169
g2170
sg2118
g0
(g1865
g2
Ntp2394
Rp2395
(dp2396
g6
g7
sg8
I01
sg9
g4
sg10
Nsg1869
g0
(g1870
g2
Ntp2397
Rp2398
(dp2399
g1874
(lp2400
g1876
asg1877
Nsg1878
g1879
sg1880
g1879
sg1881
F10.0
sg1882
I400
sg1883
g1879
sbsg43
Nsg17
g18
sg1884
Nsg20
I01
sg23
Nsg57
I0
sg58
I0
sg25
Nsg26
Nsg11
Nsg29
I00
sg30
I00
sg31
(dp2401
sg1886
Nsg33
I00
sg1805
Nsg70
Nsg1804
Nsg1887
Nsg34
Nsg76
Nsg68
I01
sg1888
g2179
sg1890
V
p2402
sg1892
Nsg82
g0
(g83
g84
((lp2403
(lp2404
tp2405
tp2406
Rp2407
sg90
I0
sg1898
Nsg91
I01
sg93
Nsg1899
F1.2
sg94
g1738
sg1900
I00
sg1901
I00
sg44
Nsg1902
g1903
sg1904
g2186
sg35
Nsbsg20
I01
sg23
Nsg2187
I00
sg25
Nsg26
Nsg11
Nsg2188
I00
sg29
I00
sg30
I00
sg31
(dp2408
sg2190
(I3
I2
tp2409
sg33
I00
sg2192
F2.01
sg1805
g1843
sg2193
I01
sg70
g1142
sg1804
Nsg2194
g2395
sg2195
g0
(g1865
g2
Ntp2410
Rp2411
(dp2412
g6
g7
sg8
I01
sg9
g4
sg10
Nsg1869
g0
(g1870
g2
Ntp2413
Rp2414
(dp2415
g1874
(lp2416
g1876
asg1877
Nsg1878
g1879
sg1880
g1879
sg1881
F10.0
sg1882
I400
sg1883
g1879
sbsg43
Nsg17
g18
sg1884
Nsg20
I01
sg23
Nsg57
I1
sg58
I0
sg25
Nsg26
Nsg11
Nsg29
I00
sg30
I00
sg31
(dp2417
sg1886
Nsg33
I00
sg1805
Nsg70
Nsg1804
Nsg1887
Nsg34
Nsg76
Nsg68
I01
sg1888
g2204
sg1890
V
p2418
sg1892
Nsg82
g0
(g83
g84
((lp2419
(lp2420
tp2421
tp2422
Rp2423
sg90
I0
sg1898
Nsg91
I01
sg93
Nsg1899
F1.2
sg94
g1756
sg1900
I00
sg1901
I00
sg44
Nsg1902
g1903
sg1904
g2211
sg35
Nsbsg76
Nsg2212
I0
sg68
I01
sg82
g0
(g83
g84
((lp2424
(lp2425
tp2426
tp2427
Rp2428
sg2218
F3.5
sg2219
g0
(g2220
g2
Ntp2429
Rp2430
(dp2431
g6
g7
sg2224
g2225
sg2226
Nsg20
I01
sg2227
Nsg2228
I0
sg57
Nsg58
Nsg25
Nsg11
Nsg30
I00
sg31
(dp2432
sg33
I00
sg1805
Nsg2230
F0.8
sg2231
Nsg2232
g2233
sg2234
g2235
sg76
Nsg68
I01
sg2236
(I0
tp2433
sg90
I0
sg91
I01
sg2238
I01
sg2239
I01
sg94
g169
sg2240
Nsg2241
F2.01
sg1902
g1903
sg2242
I5
sg9
g4
sg2243
Nsg10
Nsg43
Nsg17
g18
sg2244
g2245
sg23
Nsg26
Nsg29
I00
sg2246
Nsg35
Nsg2247
Nsg2248
g0
(g2249
g2
Ntp2434
Rp2435
(dp2436
g2248
I3
sg2253
Nsg2254
F1.0
sg94
g0
(g142
g2
Ntp2437
Rp2438
(dp2439
g50
I2
sg51
Nsg99
g111
(g112
(I0
tp2440
g114
tp2441
Rp2442
(I1
(L3L
L3L
tp2443
g121
I00
S'\x00\x00\x00\x00\x00\x00\xf0?\x00\x00\x00\x00\x00\x00\x00\x00\x00\x00\x00\x00\x00\x00\x00\x00\x00\x00\x00\x00\x00\x00\x00\x00\x00\x00\x00\x00\x00\x00\xf0\xbf\x00\x00\x00\x00\x00\x00\x00\x00\x00\x00\x00\x00\x00\x00\x00\x00\x00\x00\x00\x00\x00\x00\x00\x00\x00\x00\x00\x00\x00\x00\xf0?'
p2444
tp2445
bsg52
g7
sg53
(dp2446
sbsg2265
I00
sg2266
g2267
sg2268
Nsg1802
g2269
sg78
g2270
sg2271
g2274
sbsg2289
g2290
sg70
Nsg34
Nsg73
I01
sg2291
Nsg80
g2292
sg82
g0
(g83
g84
((lp2447
(lp2448
tp2449
tp2450
Rp2451
sg2298
I00
sg2299
g2300
sg2301
g2302
sg2303
Nsg93
Nsg2304
g2245
sg2305
F3.5
sg8
I01
sg2306
Nsg44
Nsg1804
Nsg2307
g2308
sg69
F1.5
sg2271
Nsbsg91
I00
sg2309
g0
(g2220
g2
Ntp2452
Rp2453
(dp2454
g6
g7
sg8
I01
sg2301
g2302
sg9
g4
sg2224
g2225
sg2226
Nsg10
Nsg43
Nsg17
g18
sg2244
g2245
sg20
I01
sg2227
Nsg23
Nsg57
g111
(g112
(I0
tp2455
g114
tp2456
Rp2457
(I1
(L2L
tp2458
g121
I00
S'\x00\x00\x00\x00\x00\x00\x00\x00\x00\x00\x00\x00\x00\x00\xf0?'
p2459
tp2460
bsg58
g111
(g112
(I0
tp2461
g114
tp2462
Rp2463
(I1
(L2L
tp2464
g121
I00
S'\x00\x00\x00\x00\x00\x00\x00\x00\x00\x00\x00\x00\x00\x00\x00\x00'
p2465
tp2466
bsg25
Nsg26
Nsg11
Nsg2236
g2325
sg29
I00
sg2246
Nsg30
I00
sg31
(dp2467
sg2243
Nsg33
I00
sg2298
I00
sg1805
Nsg2247
Nsg2230
F1.0
sg2289
g2290
sg2231
Nsg1902
g2327
sg2248
g0
(g2249
g2
Ntp2468
Rp2469
(dp2470
g2248
g2331
sg2253
Nsg2254
Nsg94
g0
(g46
g2
Ntp2471
Rp2472
(dp2473
g50
I1
sg51
Nsg52
g7
sg53
(dp2474
sbsg2265
I00
sg2266
g2267
sg2268
Nsg1802
g2269
sg78
g2270
sg2271
g0
(g2272
g2
Ntp2475
Rp2476
(dp2477
g2276
I00
sg2277
Nsg2278
g111
(g112
(I0
tp2478
g114
tp2479
Rp2480
(I1
(L0L
L2L
tp2481
g121
I00
g2343
tp2482
bsg2285
I00
sg2286
F0.1111111111111111
sg2287
I1
sg2288
I00
sbsbsg34
Nsg2232
g2233
sg73
I01
sg2234
g2235
sg76
Nsg2305
F0.0
sg68
I01
sg2291
g111
(g112
(I0
tp2483
g114
tp2484
Rp2485
(I1
(L2L
L2L
tp2486
g121
I00
S'\x00\x00\x00\x00\x00\x00\x00\x00\x00\x00\x00\x00\x00\x00\x00\x00\x00\x00\x00\x00\x00\x00\x00\x00\x00\x00\x00\x00\x00\x00\xf0?'
p2487
tp2488
bsg80
g2351
sg82
g0
(g83
g84
((lp2489
(lp2490
tp2491
tp2492
Rp2493
sg90
I0
sg2299
g2300
sg2228
I0
sg2303
Nsg2242
I5
sg91
I01
sg93
F1.0
sg2304
g2245
sg2239
I00
sg94
g169
sg2306
Nsg2240
Nsg2238
I00
sg44
Nsg1804
Nsg2307
g2357
sg70
g767
sg69
F0.8
sg35
Nsg2271
g0
(g2272
g2
Ntp2494
Rp2495
(dp2496
g2276
I00
sg2277
Nsg2278
g2485
sg2285
I00
sg2286
F0.1111111111111111
sg2287
I180
sg2288
I00
sbsbsg93
Nsg34
Nsg2361
g0
(g2220
g2
Ntp2497
Rp2498
(dp2499
g6
g7
sg2224
g2225
sg2226
Nsg20
I01
sg2227
Nsg2228
I0
sg57
Nsg58
Nsg25
Nsg11
Nsg30
I00
sg31
(dp2500
sg33
I00
sg1805
Nsg2230
F0.8
sg2231
Nsg2232
g2233
sg2234
g2235
sg76
Nsg68
I01
sg2236
(I0
tp2501
sg90
I0
sg91
I01
sg2238
I01
sg2239
I01
sg94
g169
sg2240
Nsg2241
F2.01
sg1902
g1903
sg2242
I5
sg9
g4
sg2243
Nsg10
Nsg43
Nsg17
g18
sg2244
g2245
sg23
Nsg26
Nsg29
I00
sg2246
Nsg35
Nsg2247
Nsg2248
g0
(g2249
g2
Ntp2502
Rp2503
(dp2504
g2248
I2
sg2253
Nsg2254
F1.0
sg94
g0
(g142
g2
Ntp2505
Rp2506
(dp2507
g50
I2
sg51
Nsg99
g111
(g112
(I0
tp2508
g114
tp2509
Rp2510
(I1
(L3L
L3L
tp2511
g121
I00
S'\x00\x00\x00\x00\x00\x00\xf0?\x00\x00\x00\x00\x00\x00\x00\x00\x00\x00\x00\x00\x00\x00\x00\x00\x00\x00\x00\x00\x00\x00\x00\x00\x00\x00\x00\x00\x00\x00\xf0?\x00\x00\x00\x00\x00\x00\x00\x00\x00\x00\x00\x00\x00\x00\x00\x00\x00\x00\x00\x00\x00\x00\x00\x00\x00\x00\x00\x00\x00\x00\xf0?'
p2512
tp2513
bsg52
g7
sg53
(dp2514
sbsg2265
I00
sg2266
g2267
sg2268
Nsg1802
g2269
sg78
g2270
sg2271
g2274
sbsg2289
g2290
sg70
Nsg34
Nsg73
I01
sg2291
Nsg80
g2380
sg82
g0
(g83
g84
((lp2515
(lp2516
tp2517
tp2518
Rp2519
sg2298
I00
sg2299
g2300
sg2301
g2302
sg2303
Nsg93
Nsg2304
g2245
sg2305
F3.5
sg8
I01
sg2306
Nsg44
Nsg1804
Nsg2307
g2386
sg69
F1.5
sg2271
Nsbsg94
Nsg2387
g2388
sg2389
g2390
sg44
Nsg1902
g1903
sg35
NsbasS'isDefault_majloc'
p2520
I01
sg1812
g0
(g1813
g2
Ntp2521
Rp2522
sg76
Nsg68
I01
sS'_autolabelpos'
p2523
I01
sg82
g0
(g83
g84
((lp2524
(lp2525
tp2526
tp2527
Rp2528
sg90
I0
sS'_lastNumMajorTicks'
p2529
I1
sS'converter'
p2530
Nsg91
I00
sg93
NsS'offset_text_position'
p2531
Vbottom
p2532
sg94
NsS'label_position'
p2533
Vbottom
p2534
sg44
Nsg1804
Nsg2242
I15
sS'minorTicks'
p2535
(lp2536
g0
(g2161
g2
Ntp2537
Rp2538
(dp2539
g6
g7
sg41
F0.6
sg9
g4
sg2165
I01
sg8
I01
sg10
Nsg90
I0
sg43
Nsg2166
F5.4
sg2167
g1903
sg2168
I00
sg1881
F2.0
sg17
g18
sg2169
g2170
sg2118
g0
(g1865
g2
Ntp2540
Rp2541
(dp2542
g6
g7
sg8
I01
sg9
g4
sg10
Nsg1869
g0
(g1870
g2
Ntp2543
Rp2544
(dp2545
g1874
(lp2546
g1876
asg1877
Nsg1878
g1879
sg1880
g1879
sg1881
F10.0
sg1882
I400
sg1883
g1879
sbsg43
Nsg17
g18
sg1884
Nsg20
I01
sg23
Nsg57
I0
sg58
I0
sg25
Nsg26
Nsg11
Nsg29
I00
sg30
I00
sg31
(dp2547
sg1886
Nsg33
I00
sg1805
Nsg70
Nsg1804
Nsg1887
Nsg34
Nsg76
Nsg68
I01
sg1888
g2179
sg1890
V
p2548
sg1892
Nsg82
g0
(g83
g84
((lp2549
(lp2550
tp2551
tp2552
Rp2553
sg90
I0
sg1898
Nsg91
I01
sg93
Nsg1899
F1.2
sg94
g1774
sg1900
I00
sg1901
I00
sg44
Nsg1902
g1903
sg1904
g2186
sg35
Nsbsg20
I01
sg23
Nsg2187
I00
sg25
Nsg26
Nsg11
Nsg2188
I00
sg29
I00
sg30
I00
sg31
(dp2554
sg2190
(I3
I2
tp2555
sg33
I00
sg2192
I2
sg1805
g1843
sg2193
I01
sg70
g1422
sg1804
Nsg2194
g2541
sg2195
g0
(g1865
g2
Ntp2556
Rp2557
(dp2558
g6
g7
sg8
I01
sg9
g4
sg10
Nsg1869
g0
(g1870
g2
Ntp2559
Rp2560
(dp2561
g1874
(lp2562
g1876
asg1877
Nsg1878
g1879
sg1880
g1879
sg1881
F10.0
sg1882
I400
sg1883
g1879
sbsg43
Nsg17
g18
sg1884
Nsg20
I01
sg23
Nsg57
I1
sg58
I0
sg25
Nsg26
Nsg11
Nsg29
I00
sg30
I00
sg31
(dp2563
sg1886
Nsg33
I00
sg1805
Nsg70
Nsg1804
Nsg1887
Nsg34
Nsg76
Nsg68
I01
sg1888
g2204
sg1890
V
p2564
sg1892
Nsg82
g0
(g83
g84
((lp2565
(lp2566
tp2567
tp2568
Rp2569
sg90
I0
sg1898
Nsg91
I01
sg93
Nsg1899
F1.2
sg94
g1783
sg1900
I00
sg1901
I00
sg44
Nsg1902
g1903
sg1904
g2211
sg35
Nsbsg76
Nsg2212
I0
sg68
I01
sg82
g0
(g83
g84
((lp2570
(lp2571
tp2572
tp2573
Rp2574
sg2218
F3.4
sg2219
g0
(g2220
g2
Ntp2575
Rp2576
(dp2577
g6
g7
sg2224
g2225
sg2226
Nsg20
I01
sg2227
Nsg2228
I0
sg57
Nsg58
Nsg25
Nsg11
Nsg30
I00
sg31
(dp2578
sg33
I00
sg1805
Nsg2230
F0.6
sg2231
Nsg2232
g2233
sg2234
g2235
sg76
Nsg68
I01
sg2236
(I0
tp2579
sg90
I0
sg91
I01
sg2238
I01
sg2239
I01
sg94
g169
sg2240
Nsg2241
I2
sg1902
g1903
sg2242
I5
sg9
g4
sg2243
Nsg10
Nsg43
Nsg17
g18
sg2244
g2245
sg23
Nsg26
Nsg29
I00
sg2246
Nsg35
Nsg2247
Nsg2248
g0
(g2249
g2
Ntp2580
Rp2581
(dp2582
g2248
I3
sg2253
Nsg2254
F1.0
sg94
g0
(g142
g2
Ntp2583
Rp2584
(dp2585
g50
I2
sg51
Nsg99
g111
(g112
(I0
tp2586
g114
tp2587
Rp2588
(I1
(L3L
L3L
tp2589
g121
I00
S'\x00\x00\x00\x00\x00\x00\xf0?\x00\x00\x00\x00\x00\x00\x00\x00\x00\x00\x00\x00\x00\x00\x00\x00\x00\x00\x00\x00\x00\x00\x00\x00\x00\x00\x00\x00\x00\x00\xf0\xbf\x00\x00\x00\x00\x00\x00\x00\x00\x00\x00\x00\x00\x00\x00\x00\x00\x00\x00\x00\x00\x00\x00\x00\x00\x00\x00\x00\x00\x00\x00\xf0?'
p2590
tp2591
bsg52
g7
sg53
(dp2592
sbsg2265
I00
sg2266
g2267
sg2268
Nsg1802
g2269
sg78
g2270
sg2271
g2274
sbsg2289
g2290
sg70
Nsg34
Nsg73
I01
sg2291
Nsg80
g2292
sg82
g0
(g83
g84
((lp2593
(lp2594
tp2595
tp2596
Rp2597
sg2298
I00
sg2299
g2300
sg2301
g2302
sg2303
Nsg93
Nsg2304
g2245
sg2305
F2.0
sg8
I01
sg2306
Nsg44
Nsg1804
Nsg2307
g2308
sg69
F1.5
sg2271
Nsbsg91
I00
sg2309
g0
(g2220
g2
Ntp2598
Rp2599
(dp2600
g6
g7
sg8
I01
sg2301
g2302
sg9
g4
sg2224
g2225
sg2226
Nsg10
Nsg43
Nsg17
g18
sg2244
g2245
sg20
I01
sg2227
Nsg23
Nsg57
g111
(g112
(I0
tp2601
g114
tp2602
Rp2603
(I1
(L2L
tp2604
g121
I00
S'\x00\x00\x00\x00\x00\x00\x00\x00\x00\x00\x00\x00\x00\x00\xf0?'
p2605
tp2606
bsg58
g111
(g112
(I0
tp2607
g114
tp2608
Rp2609
(I1
(L2L
tp2610
g121
I00
S'\x00\x00\x00\x00\x00\x00\x00\x00\x00\x00\x00\x00\x00\x00\x00\x00'
p2611
tp2612
bsg25
Nsg26
Nsg11
Nsg2236
g2325
sg29
I00
sg2246
Nsg30
I00
sg31
(dp2613
sg2243
Nsg33
I00
sg2298
I00
sg1805
Nsg2247
Nsg2230
F1.0
sg2289
g2290
sg2231
Nsg1902
g2327
sg2248
g0
(g2249
g2
Ntp2614
Rp2615
(dp2616
g2248
g2331
sg2253
Nsg2254
Nsg94
g0
(g46
g2
Ntp2617
Rp2618
(dp2619
g50
I1
sg51
Nsg52
g7
sg53
(dp2620
sbsg2265
I00
sg2266
g2267
sg2268
Nsg1802
g2269
sg78
g2270
sg2271
g0
(g2272
g2
Ntp2621
Rp2622
(dp2623
g2276
I00
sg2277
Nsg2278
g111
(g112
(I0
tp2624
g114
tp2625
Rp2626
(I1
(L0L
L2L
tp2627
g121
I00
g2343
tp2628
bsg2285
I00
sg2286
F0.1111111111111111
sg2287
I1
sg2288
I00
sbsbsg34
Nsg2232
g2233
sg73
I01
sg2234
g2235
sg76
Nsg2305
F0.0
sg68
I01
sg2291
g111
(g112
(I0
tp2629
g114
tp2630
Rp2631
(I1
(L2L
L2L
tp2632
g121
I00
S'\x00\x00\x00\x00\x00\x00\x00\x00\x00\x00\x00\x00\x00\x00\x00\x00\x00\x00\x00\x00\x00\x00\x00\x00\x00\x00\x00\x00\x00\x00\xf0?'
p2633
tp2634
bsg80
g2351
sg82
g0
(g83
g84
((lp2635
(lp2636
tp2637
tp2638
Rp2639
sg90
I0
sg2299
g2300
sg2228
I0
sg2303
Nsg2242
I5
sg91
I01
sg93
F1.0
sg2304
g2245
sg2239
I00
sg94
g169
sg2306
Nsg2240
Nsg2238
I00
sg44
Nsg1804
Nsg2307
g2357
sg70
g627
sg69
F0.8
sg35
Nsg2271
g0
(g2272
g2
Ntp2640
Rp2641
(dp2642
g2276
I00
sg2277
Nsg2278
g2631
sg2285
I00
sg2286
F0.1111111111111111
sg2287
I180
sg2288
I00
sbsbsg93
Nsg34
Nsg2361
g0
(g2220
g2
Ntp2643
Rp2644
(dp2645
g6
g7
sg2224
g2225
sg2226
Nsg20
I01
sg2227
Nsg2228
I0
sg57
Nsg58
Nsg25
Nsg11
Nsg30
I00
sg31
(dp2646
sg33
I00
sg1805
Nsg2230
F0.6
sg2231
Nsg2232
g2233
sg2234
g2235
sg76
Nsg68
I01
sg2236
(I0
tp2647
sg90
I0
sg91
I01
sg2238
I01
sg2239
I01
sg94
g169
sg2240
Nsg2241
I2
sg1902
g1903
sg2242
I5
sg9
g4
sg2243
Nsg10
Nsg43
Nsg17
g18
sg2244
g2245
sg23
Nsg26
Nsg29
I00
sg2246
Nsg35
Nsg2247
Nsg2248
g0
(g2249
g2
Ntp2648
Rp2649
(dp2650
g2248
I2
sg2253
Nsg2254
F1.0
sg94
g0
(g142
g2
Ntp2651
Rp2652
(dp2653
g50
I2
sg51
Nsg99
g111
(g112
(I0
tp2654
g114
tp2655
Rp2656
(I1
(L3L
L3L
tp2657
g121
I00
S'\x00\x00\x00\x00\x00\x00\xf0?\x00\x00\x00\x00\x00\x00\x00\x00\x00\x00\x00\x00\x00\x00\x00\x00\x00\x00\x00\x00\x00\x00\x00\x00\x00\x00\x00\x00\x00\x00\xf0?\x00\x00\x00\x00\x00\x00\x00\x00\x00\x00\x00\x00\x00\x00\x00\x00\x00\x00\x00\x00\x00\x00\x00\x00\x00\x00\x00\x00\x00\x00\xf0?'
p2658
tp2659
bsg52
g7
sg53
(dp2660
sbsg2265
I00
sg2266
g2267
sg2268
Nsg1802
g2269
sg78
g2270
sg2271
g2274
sbsg2289
g2290
sg70
Nsg34
Nsg73
I01
sg2291
Nsg80
g2380
sg82
g0
(g83
g84
((lp2661
(lp2662
tp2663
tp2664
Rp2665
sg2298
I00
sg2299
g2300
sg2301
g2302
sg2303
Nsg93
Nsg2304
g2245
sg2305
F2.0
sg8
I01
sg2306
Nsg44
Nsg1804
Nsg2307
g2386
sg69
F1.5
sg2271
Nsbsg94
Nsg2387
g2388
sg2389
g2390
sg44
Nsg1902
g1903
sg35
Nsbag0
(g2161
g2
Ntp2666
Rp2667
(dp2668
g6
g7
sg41
F0.6
sg9
g4
sg2165
I01
sg8
I01
sg10
Nsg90
I0
sg43
Nsg2166
F5.4
sg2167
g1903
sg2168
I00
sg1881
F2.0
sg17
g18
sg2169
g2170
sg2118
g0
(g1865
g2
Ntp2669
Rp2670
(dp2671
g6
g7
sg8
I01
sg9
g4
sg10
Nsg1869
g0
(g1870
g2
Ntp2672
Rp2673
(dp2674
g1874
(lp2675
g1876
asg1877
Nsg1878
g1879
sg1880
g1879
sg1881
F10.0
sg1882
I400
sg1883
g1879
sbsg43
Nsg17
g18
sg1884
Nsg20
I01
sg23
Nsg57
I0
sg58
I0
sg25
Nsg26
Nsg11
Nsg29
I00
sg30
I00
sg31
(dp2676
sg1886
Nsg33
I00
sg1805
Nsg70
Nsg1804
Nsg1887
Nsg34
Nsg76
Nsg68
I01
sg1888
g2179
sg1890
V
p2677
sg1892
Nsg82
g0
(g83
g84
((lp2678
(lp2679
tp2680
tp2681
Rp2682
sg90
I0
sg1898
Nsg91
I01
sg93
Nsg1899
F1.2
sg94
g1747
sg1900
I00
sg1901
I00
sg44
Nsg1902
g1903
sg1904
g2186
sg35
Nsbsg20
I01
sg23
Nsg2187
I00
sg25
Nsg26
Nsg11
Nsg2188
I00
sg29
I00
sg30
I00
sg31
(dp2683
sg2190
(I3
I2
tp2684
sg33
I00
sg2192
I2
sg1805
g1843
sg2193
I01
sg70
g479
sg1804
Nsg2194
g2670
sg2195
g0
(g1865
g2
Ntp2685
Rp2686
(dp2687
g6
g7
sg8
I01
sg9
g4
sg10
Nsg1869
g0
(g1870
g2
Ntp2688
Rp2689
(dp2690
g1874
(lp2691
g1876
asg1877
Nsg1878
g1879
sg1880
g1879
sg1881
F10.0
sg1882
I400
sg1883
g1879
sbsg43
Nsg17
g18
sg1884
Nsg20
I01
sg23
Nsg57
I1
sg58
I0
sg25
Nsg26
Nsg11
Nsg29
I00
sg30
I00
sg31
(dp2692
sg1886
Nsg33
I00
sg1805
Nsg70
Nsg1804
Nsg1887
Nsg34
Nsg76
Nsg68
I01
sg1888
g2204
sg1890
V
p2693
sg1892
Nsg82
g0
(g83
g84
((lp2694
(lp2695
tp2696
tp2697
Rp2698
sg90
I0
sg1898
Nsg91
I01
sg93
Nsg1899
F1.2
sg94
g1765
sg1900
I00
sg1901
I00
sg44
Nsg1902
g1903
sg1904
g2211
sg35
Nsbsg76
Nsg2212
I0
sg68
I01
sg82
g0
(g83
g84
((lp2699
(lp2700
tp2701
tp2702
Rp2703
sg2218
F3.4
sg2219
g0
(g2220
g2
Ntp2704
Rp2705
(dp2706
g6
g7
sg2224
g2225
sg2226
Nsg20
I01
sg2227
Nsg2228
I0
sg57
Nsg58
Nsg25
Nsg11
Nsg30
I00
sg31
(dp2707
sg33
I00
sg1805
Nsg2230
F0.6
sg2231
Nsg2232
g2233
sg2234
g2235
sg76
Nsg68
I01
sg2236
(I0
tp2708
sg90
I0
sg91
I01
sg2238
I01
sg2239
I01
sg94
g169
sg2240
Nsg2241
I2
sg1902
g1903
sg2242
I5
sg9
g4
sg2243
Nsg10
Nsg43
Nsg17
g18
sg2244
g2245
sg23
Nsg26
Nsg29
I00
sg2246
Nsg35
Nsg2247
Nsg2248
g0
(g2249
g2
Ntp2709
Rp2710
(dp2711
g2248
I3
sg2253
Nsg2254
F1.0
sg94
g0
(g142
g2
Ntp2712
Rp2713
(dp2714
g50
I2
sg51
Nsg99
g111
(g112
(I0
tp2715
g114
tp2716
Rp2717
(I1
(L3L
L3L
tp2718
g121
I00
S'\x00\x00\x00\x00\x00\x00\xf0?\x00\x00\x00\x00\x00\x00\x00\x00\x00\x00\x00\x00\x00\x00\x00\x00\x00\x00\x00\x00\x00\x00\x00\x00\x00\x00\x00\x00\x00\x00\xf0\xbf\x00\x00\x00\x00\x00\x00\x00\x00\x00\x00\x00\x00\x00\x00\x00\x00\x00\x00\x00\x00\x00\x00\x00\x00\x00\x00\x00\x00\x00\x00\xf0?'
p2719
tp2720
bsg52
g7
sg53
(dp2721
sbsg2265
I00
sg2266
g2267
sg2268
Nsg1802
g2269
sg78
g2270
sg2271
g2274
sbsg2289
g2290
sg70
Nsg34
Nsg73
I01
sg2291
Nsg80
g2292
sg82
g0
(g83
g84
((lp2722
(lp2723
tp2724
tp2725
Rp2726
sg2298
I00
sg2299
g2300
sg2301
g2302
sg2303
Nsg93
Nsg2304
g2245
sg2305
F2.0
sg8
I01
sg2306
Nsg44
Nsg1804
Nsg2307
g2308
sg69
F1.5
sg2271
Nsbsg91
I00
sg2309
g0
(g2220
g2
Ntp2727
Rp2728
(dp2729
g6
g7
sg8
I01
sg2301
g2302
sg9
g4
sg2224
g2225
sg2226
Nsg10
Nsg43
Nsg17
g18
sg2244
g2245
sg20
I01
sg2227
Nsg23
Nsg57
g111
(g112
(I0
tp2730
g114
tp2731
Rp2732
(I1
(L2L
tp2733
g121
I00
S'\x00\x00\x00\x00\x00\x00\x00\x00\x00\x00\x00\x00\x00\x00\xf0?'
p2734
tp2735
bsg58
g111
(g112
(I0
tp2736
g114
tp2737
Rp2738
(I1
(L2L
tp2739
g121
I00
S'\x00\x00\x00\x00\x00\x00\x00\x00\x00\x00\x00\x00\x00\x00\x00\x00'
p2740
tp2741
bsg25
Nsg26
Nsg11
Nsg2236
g2325
sg29
I00
sg2246
Nsg30
I00
sg31
(dp2742
sg2243
Nsg33
I00
sg2298
I00
sg1805
Nsg2247
Nsg2230
F1.0
sg2289
g2290
sg2231
Nsg1902
g2327
sg2248
g0
(g2249
g2
Ntp2743
Rp2744
(dp2745
g2248
g2331
sg2253
Nsg2254
Nsg94
g0
(g46
g2
Ntp2746
Rp2747
(dp2748
g50
I1
sg51
Nsg52
g7
sg53
(dp2749
sbsg2265
I00
sg2266
g2267
sg2268
Nsg1802
g2269
sg78
g2270
sg2271
g0
(g2272
g2
Ntp2750
Rp2751
(dp2752
g2276
I00
sg2277
Nsg2278
g111
(g112
(I0
tp2753
g114
tp2754
Rp2755
(I1
(L0L
L2L
tp2756
g121
I00
g2343
tp2757
bsg2285
I00
sg2286
F0.1111111111111111
sg2287
I1
sg2288
I00
sbsbsg34
Nsg2232
g2233
sg73
I01
sg2234
g2235
sg76
Nsg2305
F0.0
sg68
I01
sg2291
g111
(g112
(I0
tp2758
g114
tp2759
Rp2760
(I1
(L2L
L2L
tp2761
g121
I00
S'\x00\x00\x00\x00\x00\x00\x00\x00\x00\x00\x00\x00\x00\x00\x00\x00\x00\x00\x00\x00\x00\x00\x00\x00\x00\x00\x00\x00\x00\x00\xf0?'
p2762
tp2763
bsg80
g2351
sg82
g0
(g83
g84
((lp2764
(lp2765
tp2766
tp2767
Rp2768
sg90
I0
sg2299
g2300
sg2228
I0
sg2303
Nsg2242
I5
sg91
I01
sg93
F1.0
sg2304
g2245
sg2239
I00
sg94
g169
sg2306
Nsg2240
Nsg2238
I00
sg44
Nsg1804
Nsg2307
g2357
sg70
g1212
sg69
F0.8
sg35
Nsg2271
g0
(g2272
g2
Ntp2769
Rp2770
(dp2771
g2276
I00
sg2277
Nsg2278
g2760
sg2285
I00
sg2286
F0.1111111111111111
sg2287
I180
sg2288
I00
sbsbsg93
Nsg34
Nsg2361
g0
(g2220
g2
Ntp2772
Rp2773
(dp2774
g6
g7
sg2224
g2225
sg2226
Nsg20
I01
sg2227
Nsg2228
I0
sg57
Nsg58
Nsg25
Nsg11
Nsg30
I00
sg31
(dp2775
sg33
I00
sg1805
Nsg2230
F0.6
sg2231
Nsg2232
g2233
sg2234
g2235
sg76
Nsg68
I01
sg2236
(I0
tp2776
sg90
I0
sg91
I01
sg2238
I01
sg2239
I01
sg94
g169
sg2240
Nsg2241
I2
sg1902
g1903
sg2242
I5
sg9
g4
sg2243
Nsg10
Nsg43
Nsg17
g18
sg2244
g2245
sg23
Nsg26
Nsg29
I00
sg2246
Nsg35
Nsg2247
Nsg2248
g0
(g2249
g2
Ntp2777
Rp2778
(dp2779
g2248
I2
sg2253
Nsg2254
F1.0
sg94
g0
(g142
g2
Ntp2780
Rp2781
(dp2782
g50
I2
sg51
Nsg99
g111
(g112
(I0
tp2783
g114
tp2784
Rp2785
(I1
(L3L
L3L
tp2786
g121
I00
S'\x00\x00\x00\x00\x00\x00\xf0?\x00\x00\x00\x00\x00\x00\x00\x00\x00\x00\x00\x00\x00\x00\x00\x00\x00\x00\x00\x00\x00\x00\x00\x00\x00\x00\x00\x00\x00\x00\xf0?\x00\x00\x00\x00\x00\x00\x00\x00\x00\x00\x00\x00\x00\x00\x00\x00\x00\x00\x00\x00\x00\x00\x00\x00\x00\x00\x00\x00\x00\x00\xf0?'
p2787
tp2788
bsg52
g7
sg53
(dp2789
sbsg2265
I00
sg2266
g2267
sg2268
Nsg1802
g2269
sg78
g2270
sg2271
g2274
sbsg2289
g2290
sg70
Nsg34
Nsg73
I01
sg2291
Nsg80
g2380
sg82
g0
(g83
g84
((lp2790
(lp2791
tp2792
tp2793
Rp2794
sg2298
I00
sg2299
g2300
sg2301
g2302
sg2303
Nsg93
Nsg2304
g2245
sg2305
F2.0
sg8
I01
sg2306
Nsg44
Nsg1804
Nsg2307
g2386
sg69
F1.5
sg2271
Nsbsg94
Nsg2387
g2388
sg2389
g2390
sg44
Nsg1902
g1903
sg35
Nsbasg35
NsS'_minor_tick_kw'
p2795
(dp2796
g2152
I01
sg2154
I00
ssS'isDefault_minfmt'
p2797
I01
sbsS'_navigate_mode'
p2798
Nsg35
NsS'transAxes'
p2799
g172
sS'_connected'
p2800
(dp2801
sS'fmt_ydata'
p2802
NsS'dataLim'
p2803
g0
(g106
g2
Ntp2804
Rp2805
(dp2806
g50
I0
sg110
g111
(g112
(I0
tp2807
g114
tp2808
Rp2809
(I1
(L2L
tp2810
g121
I00
S'\x927k\xb4\xc8i\xc0?\xdd\xf5v\xeb\xe7f\xb0?'
p2811
tp2812
bsg53
(dp2813
sg127
g111
(g112
(I0
tp2814
g114
tp2815
Rp2816
(I1
(L2L
L2L
tp2817
g121
I00
S'\x00\x00\x00\x00\x00\x00\xf0\x7f\x00\x00\x00\x00\x00\x00\xf0\x7f\x00\x00\x00\x00\x00\x00\xf0\xff\x00\x00\x00\x00\x00\x00\xf0\xff'
p2818
tp2819
bsg134
g111
(g112
(I0
tp2820
g114
tp2821
Rp2822
(I1
(L2L
L2L
tp2823
g121
I00
S'\x00\x00\x00\x00\x00\x00\x00\x00\xcaOl\x84\xca\xfb\xef\xbf\x18-DT\xfb!\x19@\xcaOl\x84\xca\xfb\xef?'
p2824
tp2825
bsg141
I01
sg52
g7
sbsS'transData'
p2826
g242
sg34
NsS'_sharey'
p2827
NsS'_sharex'
p2828
NsS'axesPatch'
p2829
g1966
sS'_ymargin'
p2830
F0.05
sS'_axes_locator'
p2831
Nsg82
g0
(g83
g84
((lp2832
(lp2833
tp2834
tp2835
Rp2836
sS'numCols'
p2837
I1
sg93
Nsg1816
NsS'yaxis'
p2838
g0
(cmatplotlib.axis
YAxis
p2839
g2
Ntp2840
Rp2841
(dp2842
g6
g7
sg2048
g0
(g2049
g2
Ntp2843
Rp2844
(dp2845
g2053
g0
(g2054
g2
Ntp2846
Rp2847
(dp2848
g2058
I2
sg2059
I00
sg2060
g2061
sg2062
g111
(g112
(I0
tp2849
g114
tp2850
Rp2851
(I1
(L5L
tp2852
g121
I00
S'\x00\x00\x00\x00\x00\x00\xf0?\x00\x00\x00\x00\x00\x00\x00@\x00\x00\x00\x00\x00\x00\x04@\x00\x00\x00\x00\x00\x00\x14@\x00\x00\x00\x00\x00\x00$@'
p2853
tp2854
bsg2069
Nsg2070
g111
(g112
(I0
tp2855
g114
tp2856
Rp2857
(I1
(L10L
tp2858
g121
I00
S'\x9a\x99\x99\x99\x99\x99\xb9?\x9a\x99\x99\x99\x99\x99\xc9?\x00\x00\x00\x00\x00\x00\xd0?\x00\x00\x00\x00\x00\x00\xe0?\x00\x00\x00\x00\x00\x00\xf0?\x00\x00\x00\x00\x00\x00\x00@\x00\x00\x00\x00\x00\x00\x04@\x00\x00\x00\x00\x00\x00\x14@\x00\x00\x00\x00\x00\x00$@\x00\x00\x00\x00\x00\x004@'
p2859
tp2860
bsg2077
I00
sg2078
g2841
sbsg2079
g0
(g2080
g2
Ntp2861
Rp2862
(dp2863
g2084
g2085
sg2086
I0
sg2087
I01
sg2088
I00
sg2089
g7
sg2090
I00
sg2091
I4
sg2092
I0
sg1900
I00
sg2093
I01
sg2078
g2841
sbsbsg2094
I01
sg2095
g0
(g2096
g2
Ntp2864
Rp2865
sg9
g4
sg8
I01
sg2099
I00
sg10
Nsg43
Nsg2100
I00
sg17
g18
sg20
I01
sg23
Nsg2101
g0
(g1865
g2
Ntp2866
Rp2867
(dp2868
g6
g7
sg8
I01
sg9
g4
sg10
Nsg1869
g0
(g1870
g2
Ntp2869
Rp2870
(dp2871
g1874
(lp2872
g1876
asg1877
Nsg1878
g1879
sg1880
g1879
sg1881
F10.0
sg1882
I400
sg1883
g1879
sbsg43
Nsg17
g18
sg1884
Nsg20
I01
sg23
Nsg57
F0.5
sg58
I0
sg25
Nsg26
Nsg11
Nsg29
I00
sg30
I00
sg31
(dp2873
sg1886
Nsg33
I00
sg1805
Nsg70
Nsg1804
Nsg1887
Nsg34
Nsg76
Nsg68
I01
sg1888
Vbaseline
p2874
sg1890
V
p2875
sg1892
Nsg82
g0
(g83
g84
((lp2876
(lp2877
tp2878
tp2879
Rp2880
sg90
I0
sg1898
Nsg91
I01
sg93
Nsg1899
F1.2
sg94
g575
sg1900
I00
sg1901
I00
sg44
Nsg1902
g1903
sg1904
Vleft
p2881
sg35
Nsbsg25
Nsg26
Nsg11
Nsg2118
g0
(g1865
g2
Ntp2882
Rp2883
(dp2884
g6
g7
sg8
I01
sg9
g4
sg10
Nsg1869
g0
(g1870
g2
Ntp2885
Rp2886
(dp2887
g1874
(lp2888
g1876
asg1877
Nsg1878
g1879
sg1880
g1879
sg1881
F10.0
sg1882
I400
sg1883
g1879
sbsg43
Nsg17
g18
sg1884
Nsg20
I01
sg23
Nsg57
F0.5
sg58
I0
sg25
Nsg26
Nsg11
Nsg29
I00
sg30
I00
sg31
(dp2889
sg1886
Nsg33
I00
sg1805
Nsg70
Nsg1804
Nsg1887
Vanchor
p2890
sg34
Nsg76
Nsg68
I01
sg1888
Vbottom
p2891
sg1890
V
p2892
sg1892
Nsg82
g0
(g83
g84
((lp2893
(lp2894
tp2895
tp2896
Rp2897
sg90
I0
sg1898
Vvertical
p2898
sg91
I01
sg93
Nsg1899
F1.2
sg94
g793
sg1900
I00
sg1901
I00
sg44
Nsg1902
g1903
sg1904
Vcenter
p2899
sg35
Nsbsg29
I00
sg2135
I01
sg30
I00
sg31
(dp2900
sg2137
Nsg33
I00
sg2138
g0
(g2049
g2
Ntp2901
Rp2902
(dp2903
g2053
g0
(g2142
g2
Ntp2904
Rp2905
(dp2906
g2078
g2841
sbsg2079
g0
(g2146
g2
Ntp2907
Rp2908
(dp2909
g2078
g2841
sbsbsg1805
g1843
sg2150
(dp2910
g2152
I01
sg2153
I00
sg2154
I00
ssg2155
I01
sg70
g697
sg34
Nsg2156
I00
sg2157
I1
sg2158
F4.0
sg2159
(lp2911
g0
(cmatplotlib.axis
YTick
p2912
g2
Ntp2913
Rp2914
(dp2915
g6
g7
sg41
F0.8
sg9
g4
sg2165
I01
sg8
I01
sg10
Nsg90
I0
sg43
Nsg2166
F7.0
sg2167
g1903
sg2168
I00
sg1881
F3.5
sg17
g18
sg2169
g2170
sg2118
g0
(g1865
g2
Ntp2916
Rp2917
(dp2918
g6
g7
sg8
I01
sg9
g4
sg10
Nsg1869
g0
(g1870
g2
Ntp2919
Rp2920
(dp2921
g1874
(lp2922
g1876
asg1877
Nsg1878
g1879
sg1880
g1879
sg1881
F10.0
sg1882
I400
sg1883
g1879
sbsg43
Nsg17
g18
sg1884
Nsg20
I01
sg23
Nsg57
I0
sg58
I0
sg25
Nsg26
Nsg11
Nsg29
I00
sg30
I00
sg31
(dp2923
sg1886
Nsg33
I00
sg1805
Nsg70
Nsg1804
Nsg1887
Nsg34
Nsg76
Nsg68
I01
sg1888
Vcenter_baseline
p2924
sg1890
V
p2925
sg1892
Nsg82
g0
(g83
g84
((lp2926
(lp2927
tp2928
tp2929
Rp2930
sg90
I0
sg1898
Nsg91
I01
sg93
Nsg1899
F1.2
sg94
g298
sg1900
I00
sg1901
I00
sg44
Nsg1902
g1903
sg1904
Vright
p2931
sg35
Nsbsg20
I01
sg23
Nsg2187
I00
sg25
Nsg26
Nsg11
Nsg2188
I00
sg29
I00
sg30
I00
sg31
(dp2932
sg2190
(I0
I1
tp2933
sg33
I00
sg2192
F2.01
sg1805
g1843
sg2193
I01
sg70
g1492
sg1804
Nsg2194
g2917
sg2195
g0
(g1865
g2
Ntp2934
Rp2935
(dp2936
g6
g7
sg8
I01
sg9
g4
sg10
Nsg1869
g0
(g1870
g2
Ntp2937
Rp2938
(dp2939
g1874
(lp2940
g1876
asg1877
Nsg1878
g1879
sg1880
g1879
sg1881
F10.0
sg1882
I400
sg1883
g1879
sbsg43
Nsg17
g18
sg1884
Nsg20
I01
sg23
Nsg57
I0
sg58
I1
sg25
Nsg26
Nsg11
Nsg29
I00
sg30
I00
sg31
(dp2941
sg1886
Nsg33
I00
sg1805
Nsg70
Nsg1804
Nsg1887
Nsg34
Nsg76
Nsg68
I01
sg1888
Vcenter_baseline
p2942
sg1890
V
p2943
sg1892
Nsg82
g0
(g83
g84
((lp2944
(lp2945
tp2946
tp2947
Rp2948
sg90
I0
sg1898
Nsg91
I01
sg93
Nsg1899
F1.2
sg94
g280
sg1900
I00
sg1901
I00
sg44
Nsg1902
g1903
sg1904
Vleft
p2949
sg35
Nsbsg76
Nsg2212
I0
sg68
I01
sg82
g0
(g83
g84
((lp2950
(lp2951
tp2952
tp2953
Rp2954
sg2218
F3.5
sg2219
g0
(g2220
g2
Ntp2955
Rp2956
(dp2957
g6
g7
sg2224
g2225
sg2226
Nsg20
I01
sg2227
Nsg2228
I0
sg57
Nsg58
Nsg25
Nsg11
Nsg30
I00
sg31
(dp2958
sg33
I00
sg1805
Nsg2230
F0.8
sg2231
Nsg2232
g2233
sg2234
g2235
sg76
Nsg68
I01
sg2236
(I0
tp2959
sg90
I0
sg91
I01
sg2238
I01
sg2239
I01
sg94
g248
sg2240
Nsg2241
F2.01
sg1902
g1903
sg2242
I5
sg9
g4
sg2243
Nsg10
Nsg43
Nsg17
g18
sg2244
g2245
sg23
Nsg26
Nsg29
I00
sg2246
Nsg35
Nsg2247
Nsg2248
g0
(g2249
g2
Ntp2960
Rp2961
(dp2962
g2248
I0
sg2253
Nsg2254
F1.0
sg94
g0
(g142
g2
Ntp2963
Rp2964
(dp2965
g50
I2
sg51
Nsg99
g111
(g112
(I0
tp2966
g114
tp2967
Rp2968
(I1
(L3L
L3L
tp2969
g121
I00
S'\x00\x00\x00\x00\x00\x00\xf0\xbf\x00\x00\x00\x00\x00\x00\x00\x00\x00\x00\x00\x00\x00\x00\x00\x00\x00\x00\x00\x00\x00\x00\x00\x00\x00\x00\x00\x00\x00\x00\xf0?\x00\x00\x00\x00\x00\x00\x00\x00\x00\x00\x00\x00\x00\x00\x00\x00\x00\x00\x00\x00\x00\x00\x00\x00\x00\x00\x00\x00\x00\x00\xf0?'
p2970
tp2971
bsg52
g7
sg53
(dp2972
sbsg2265
I00
sg2266
g2267
sg2268
Nsg1802
g2269
sg78
g2270
sg2271
g0
(g2272
g2
Ntp2973
Rp2974
(dp2975
g2276
I00
sg2277
Nsg2278
g111
(g112
(I0
tp2976
g114
tp2977
Rp2978
(I1
(L2L
L2L
tp2979
g121
I00
S'\x00\x00\x00\x00\x00\x00\x00\x00\x00\x00\x00\x00\x00\x00\x00\x00\x00\x00\x00\x00\x00\x00\xf0?\x00\x00\x00\x00\x00\x00\x00\x00'
p2980
tp2981
bsg2285
I00
sg2286
F0.1111111111111111
sg2287
I1
sg2288
I00
sbsbsg2289
g2290
sg70
Nsg34
Nsg73
I01
sg2291
Nsg80
VNone
p2982
sg82
g0
(g83
g84
((lp2983
(lp2984
tp2985
tp2986
Rp2987
sg2298
I00
sg2299
g2300
sg2301
g2302
sg2303
Nsg93
Nsg2304
g2245
sg2305
F3.5
sg8
I01
sg2306
Nsg44
Nsg1804
Nsg2307
(I0
tp2988
sg69
F1.5
sg2271
Nsbsg91
I00
sg2309
g0
(g2220
g2
Ntp2989
Rp2990
(dp2991
g6
g7
sg8
I01
sg2301
g2302
sg9
g4
sg2224
g2225
sg2226
Nsg10
Nsg43
Nsg17
g18
sg2244
g2245
sg20
I01
sg2227
Nsg23
Nsg57
g111
(g112
(I0
tp2992
g114
tp2993
Rp2994
(I1
(L2L
tp2995
g121
I00
S'\x00\x00\x00\x00\x00\x00\x00\x00\x00\x00\x00\x00\x00\x00\x00\x00'
p2996
tp2997
bsg58
g111
(g112
(I0
tp2998
g114
tp2999
Rp3000
(I1
(L2L
tp3001
g121
I00
S'\x00\x00\x00\x00\x00\x00\x00\x00\x00\x00\x00\x00\x00\x00\xf0?'
p3002
tp3003
bsg25
Nsg26
Nsg11
Nsg2236
(I0
I1
tp3004
sg29
I00
sg2246
Nsg30
I00
sg31
(dp3005
sg2243
Nsg33
I00
sg2298
I00
sg1805
Nsg2247
Nsg2230
F1.0
sg2289
g2290
sg2231
Nsg1902
g2327
sg2248
g0
(g2249
g2
Ntp3006
Rp3007
(dp3008
g2248
g2331
sg2253
Nsg2254
Nsg94
g0
(g46
g2
Ntp3009
Rp3010
(dp3011
g50
I1
sg51
Nsg52
g7
sg53
(dp3012
sbsg2265
I00
sg2266
g2267
sg2268
Nsg1802
g2269
sg78
g2270
sg2271
g0
(g2272
g2
Ntp3013
Rp3014
(dp3015
g2276
I00
sg2277
Nsg2278
g111
(g112
(I0
tp3016
g114
tp3017
Rp3018
(I1
(L0L
L2L
tp3019
g121
I00
g2343
tp3020
bsg2285
I00
sg2286
F0.1111111111111111
sg2287
I1
sg2288
I00
sbsbsg34
Nsg2232
g2233
sg73
I01
sg2234
g2235
sg76
Nsg2305
F0.0
sg68
I01
sg2291
g111
(g112
(I0
tp3021
g114
tp3022
Rp3023
(I1
(L2L
L2L
tp3024
g121
I00
S'\x00\x00\x00\x00\x00\x00\x00\x00\x00\x00\x00\x00\x00\x00\x00\x00\x00\x00\x00\x00\x00\x00\xf0?\x00\x00\x00\x00\x00\x00\x00\x00'
p3025
tp3026
bsg80
g2351
sg82
g0
(g83
g84
((lp3027
(lp3028
tp3029
tp3030
Rp3031
sg90
I0
sg2299
g2300
sg2228
I0
sg2303
Nsg2242
I5
sg91
I01
sg93
F1.0
sg2304
g2245
sg2239
I00
sg94
g248
sg2306
Nsg2240
Nsg2238
I00
sg44
Nsg1804
Nsg2307
(I0
I0
tp3032
sg70
g1072
sg69
F0.8
sg35
Nsg2271
g0
(g2272
g2
Ntp3033
Rp3034
(dp3035
g2276
I00
sg2277
Nsg2278
g3023
sg2285
I00
sg2286
F0.1111111111111111
sg2287
I180
sg2288
I00
sbsbsg93
Nsg34
Nsg2361
g0
(g2220
g2
Ntp3036
Rp3037
(dp3038
g6
g7
sg2224
g2225
sg2226
Nsg20
I01
sg2227
Nsg2228
I0
sg57
Nsg58
Nsg25
Nsg11
Nsg30
I00
sg31
(dp3039
sg33
I00
sg1805
Nsg2230
F0.8
sg2231
Nsg2232
g2233
sg2234
g2235
sg76
Nsg68
I01
sg2236
(I1
tp3040
sg90
I0
sg91
I01
sg2238
I01
sg2239
I01
sg94
g248
sg2240
Nsg2241
F2.01
sg1902
g1903
sg2242
I5
sg9
g4
sg2243
Nsg10
Nsg43
Nsg17
g18
sg2244
g2245
sg23
Nsg26
Nsg29
I00
sg2246
Nsg35
Nsg2247
Nsg2248
g0
(g2249
g2
Ntp3041
Rp3042
(dp3043
g2248
I1
sg2253
Nsg2254
F1.0
sg94
g0
(g142
g2
Ntp3044
Rp3045
(dp3046
g50
I2
sg51
Nsg99
g111
(g112
(I0
tp3047
g114
tp3048
Rp3049
(I1
(L3L
L3L
tp3050
g121
I00
S'\x00\x00\x00\x00\x00\x00\xf0?\x00\x00\x00\x00\x00\x00\x00\x00\x00\x00\x00\x00\x00\x00\x00\x00\x00\x00\x00\x00\x00\x00\x00\x00\x00\x00\x00\x00\x00\x00\xf0?\x00\x00\x00\x00\x00\x00\x00\x00\x00\x00\x00\x00\x00\x00\x00\x00\x00\x00\x00\x00\x00\x00\x00\x00\x00\x00\x00\x00\x00\x00\xf0?'
p3051
tp3052
bsg52
g7
sg53
(dp3053
sbsg2265
I00
sg2266
g2267
sg2268
Nsg1802
g2269
sg78
g2270
sg2271
g2974
sbsg2289
g2290
sg70
Nsg34
Nsg73
I01
sg2291
Nsg80
VNone
p3054
sg82
g0
(g83
g84
((lp3055
(lp3056
tp3057
tp3058
Rp3059
sg2298
I00
sg2299
g2300
sg2301
g2302
sg2303
Nsg93
Nsg2304
g2245
sg2305
F3.5
sg8
I01
sg2306
Nsg44
Nsg1804
Nsg2307
(I0
tp3060
sg69
F1.5
sg2271
Nsbsg94
Nsg2387
g2388
sg2389
Vytick
p3061
sg44
Nsg1902
g1903
sg35
Nsbag0
(g2912
g2
Ntp3062
Rp3063
(dp3064
g6
g7
sg41
F0.8
sg9
g4
sg2165
I01
sg8
I01
sg10
Nsg90
I0
sg43
Nsg2166
F7.0
sg2167
g1903
sg2168
I00
sg1881
F3.5
sg17
g18
sg2169
g2170
sg2118
g0
(g1865
g2
Ntp3065
Rp3066
(dp3067
g6
g7
sg8
I01
sg9
g4
sg10
Nsg1869
g0
(g1870
g2
Ntp3068
Rp3069
(dp3070
g1874
(lp3071
g1876
asg1877
Nsg1878
g1879
sg1880
g1879
sg1881
F10.0
sg1882
I400
sg1883
g1879
sbsg43
Nsg17
g18
sg1884
Nsg20
I01
sg23
Nsg57
I0
sg58
I0
sg25
Nsg26
Nsg11
Nsg29
I00
sg30
I00
sg31
(dp3072
sg1886
Nsg33
I00
sg1805
Nsg70
Nsg1804
Nsg1887
Nsg34
Nsg76
Nsg68
I01
sg1888
g2924
sg1890
V
p3073
sg1892
Nsg82
g0
(g83
g84
((lp3074
(lp3075
tp3076
tp3077
Rp3078
sg90
I0
sg1898
Nsg91
I01
sg93
Nsg1899
F1.2
sg94
g262
sg1900
I00
sg1901
I00
sg44
Nsg1902
g1903
sg1904
g2931
sg35
Nsbsg20
I01
sg23
Nsg2187
I00
sg25
Nsg26
Nsg11
Nsg2188
I00
sg29
I00
sg30
I00
sg31
(dp3079
sg2190
(I0
I1
tp3080
sg33
I00
sg2192
F2.01
sg1805
g1843
sg2193
I01
sg70
g393
sg1804
Nsg2194
g3066
sg2195
g0
(g1865
g2
Ntp3081
Rp3082
(dp3083
g6
g7
sg8
I01
sg9
g4
sg10
Nsg1869
g0
(g1870
g2
Ntp3084
Rp3085
(dp3086
g1874
(lp3087
g1876
asg1877
Nsg1878
g1879
sg1880
g1879
sg1881
F10.0
sg1882
I400
sg1883
g1879
sbsg43
Nsg17
g18
sg1884
Nsg20
I01
sg23
Nsg57
I0
sg58
I1
sg25
Nsg26
Nsg11
Nsg29
I00
sg30
I00
sg31
(dp3088
sg1886
Nsg33
I00
sg1805
Nsg70
Nsg1804
Nsg1887
Nsg34
Nsg76
Nsg68
I01
sg1888
g2942
sg1890
V
p3089
sg1892
Nsg82
g0
(g83
g84
((lp3090
(lp3091
tp3092
tp3093
Rp3094
sg90
I0
sg1898
Nsg91
I01
sg93
Nsg1899
F1.2
sg94
g289
sg1900
I00
sg1901
I00
sg44
Nsg1902
g1903
sg1904
g2949
sg35
Nsbsg76
Nsg2212
I0
sg68
I01
sg82
g0
(g83
g84
((lp3095
(lp3096
tp3097
tp3098
Rp3099
sg2218
F3.5
sg2219
g0
(g2220
g2
Ntp3100
Rp3101
(dp3102
g6
g7
sg2224
g2225
sg2226
Nsg20
I01
sg2227
Nsg2228
I0
sg57
Nsg58
Nsg25
Nsg11
Nsg30
I00
sg31
(dp3103
sg33
I00
sg1805
Nsg2230
F0.8
sg2231
Nsg2232
g2233
sg2234
g2235
sg76
Nsg68
I01
sg2236
g2959
sg90
I0
sg91
I01
sg2238
I01
sg2239
I01
sg94
g248
sg2240
Nsg2241
F2.01
sg1902
g1903
sg2242
I5
sg9
g4
sg2243
Nsg10
Nsg43
Nsg17
g18
sg2244
g2245
sg23
Nsg26
Nsg29
I00
sg2246
Nsg35
Nsg2247
Nsg2248
g0
(g2249
g2
Ntp3104
Rp3105
(dp3106
g2248
I0
sg2253
Nsg2254
F1.0
sg94
g0
(g142
g2
Ntp3107
Rp3108
(dp3109
g50
I2
sg51
Nsg99
g111
(g112
(I0
tp3110
g114
tp3111
Rp3112
(I1
(L3L
L3L
tp3113
g121
I00
S'\x00\x00\x00\x00\x00\x00\xf0\xbf\x00\x00\x00\x00\x00\x00\x00\x00\x00\x00\x00\x00\x00\x00\x00\x00\x00\x00\x00\x00\x00\x00\x00\x00\x00\x00\x00\x00\x00\x00\xf0?\x00\x00\x00\x00\x00\x00\x00\x00\x00\x00\x00\x00\x00\x00\x00\x00\x00\x00\x00\x00\x00\x00\x00\x00\x00\x00\x00\x00\x00\x00\xf0?'
p3114
tp3115
bsg52
g7
sg53
(dp3116
sbsg2265
I00
sg2266
g2267
sg2268
Nsg1802
g2269
sg78
g2270
sg2271
g2974
sbsg2289
g2290
sg70
Nsg34
Nsg73
I01
sg2291
Nsg80
g2982
sg82
g0
(g83
g84
((lp3117
(lp3118
tp3119
tp3120
Rp3121
sg2298
I00
sg2299
g2300
sg2301
g2302
sg2303
Nsg93
Nsg2304
g2245
sg2305
F3.5
sg8
I01
sg2306
Nsg44
Nsg1804
Nsg2307
(I0
tp3122
sg69
F1.5
sg2271
Nsbsg91
I00
sg2309
g0
(g2220
g2
Ntp3123
Rp3124
(dp3125
g6
g7
sg8
I01
sg2301
g2302
sg9
g4
sg2224
g2225
sg2226
Nsg10
Nsg43
Nsg17
g18
sg2244
g2245
sg20
I01
sg2227
Nsg23
Nsg57
g111
(g112
(I0
tp3126
g114
tp3127
Rp3128
(I1
(L2L
tp3129
g121
I00
S'\x00\x00\x00\x00\x00\x00\x00\x00\x00\x00\x00\x00\x00\x00\x00\x00'
p3130
tp3131
bsg58
g111
(g112
(I0
tp3132
g114
tp3133
Rp3134
(I1
(L2L
tp3135
g121
I00
S'\x00\x00\x00\x00\x00\x00\x00\x00\x00\x00\x00\x00\x00\x00\xf0?'
p3136
tp3137
bsg25
Nsg26
Nsg11
Nsg2236
g3004
sg29
I00
sg2246
Nsg30
I00
sg31
(dp3138
sg2243
Nsg33
I00
sg2298
I00
sg1805
Nsg2247
Nsg2230
F1.0
sg2289
g2290
sg2231
Nsg1902
g2327
sg2248
g0
(g2249
g2
Ntp3139
Rp3140
(dp3141
g2248
g2331
sg2253
Nsg2254
Nsg94
g0
(g46
g2
Ntp3142
Rp3143
(dp3144
g50
I1
sg51
Nsg52
g7
sg53
(dp3145
sbsg2265
I00
sg2266
g2267
sg2268
Nsg1802
g2269
sg78
g2270
sg2271
g0
(g2272
g2
Ntp3146
Rp3147
(dp3148
g2276
I00
sg2277
Nsg2278
g111
(g112
(I0
tp3149
g114
tp3150
Rp3151
(I1
(L0L
L2L
tp3152
g121
I00
g2343
tp3153
bsg2285
I00
sg2286
F0.1111111111111111
sg2287
I1
sg2288
I00
sbsbsg34
Nsg2232
g2233
sg73
I01
sg2234
g2235
sg76
Nsg2305
F0.0
sg68
I01
sg2291
g111
(g112
(I0
tp3154
g114
tp3155
Rp3156
(I1
(L2L
L2L
tp3157
g121
I00
S'\x00\x00\x00\x00\x00\x00\x00\x00\x00\x00\x00\x00\x00\x00\x00\x00\x00\x00\x00\x00\x00\x00\xf0?\x00\x00\x00\x00\x00\x00\x00\x00'
p3158
tp3159
bsg80
g2351
sg82
g0
(g83
g84
((lp3160
(lp3161
tp3162
tp3163
Rp3164
sg90
I0
sg2299
g2300
sg2228
I0
sg2303
Nsg2242
I5
sg91
I01
sg93
F1.0
sg2304
g2245
sg2239
I00
sg94
g248
sg2306
Nsg2240
Nsg2238
I00
sg44
Nsg1804
Nsg2307
g3032
sg70
g549
sg69
F0.8
sg35
Nsg2271
g0
(g2272
g2
Ntp3165
Rp3166
(dp3167
g2276
I00
sg2277
Nsg2278
g3156
sg2285
I00
sg2286
F0.1111111111111111
sg2287
I180
sg2288
I00
sbsbsg93
Nsg34
Nsg2361
g0
(g2220
g2
Ntp3168
Rp3169
(dp3170
g6
g7
sg2224
g2225
sg2226
Nsg20
I01
sg2227
Nsg2228
I0
sg57
Nsg58
Nsg25
Nsg11
Nsg30
I00
sg31
(dp3171
sg33
I00
sg1805
Nsg2230
F0.8
sg2231
Nsg2232
g2233
sg2234
g2235
sg76
Nsg68
I01
sg2236
g3040
sg90
I0
sg91
I01
sg2238
I01
sg2239
I01
sg94
g248
sg2240
Nsg2241
F2.01
sg1902
g1903
sg2242
I5
sg9
g4
sg2243
Nsg10
Nsg43
Nsg17
g18
sg2244
g2245
sg23
Nsg26
Nsg29
I00
sg2246
Nsg35
Nsg2247
Nsg2248
g0
(g2249
g2
Ntp3172
Rp3173
(dp3174
g2248
I1
sg2253
Nsg2254
F1.0
sg94
g0
(g142
g2
Ntp3175
Rp3176
(dp3177
g50
I2
sg51
Nsg99
g111
(g112
(I0
tp3178
g114
tp3179
Rp3180
(I1
(L3L
L3L
tp3181
g121
I00
S'\x00\x00\x00\x00\x00\x00\xf0?\x00\x00\x00\x00\x00\x00\x00\x00\x00\x00\x00\x00\x00\x00\x00\x00\x00\x00\x00\x00\x00\x00\x00\x00\x00\x00\x00\x00\x00\x00\xf0?\x00\x00\x00\x00\x00\x00\x00\x00\x00\x00\x00\x00\x00\x00\x00\x00\x00\x00\x00\x00\x00\x00\x00\x00\x00\x00\x00\x00\x00\x00\xf0?'
p3182
tp3183
bsg52
g7
sg53
(dp3184
sbsg2265
I00
sg2266
g2267
sg2268
Nsg1802
g2269
sg78
g2270
sg2271
g2974
sbsg2289
g2290
sg70
Nsg34
Nsg73
I01
sg2291
Nsg80
g3054
sg82
g0
(g83
g84
((lp3185
(lp3186
tp3187
tp3188
Rp3189
sg2298
I00
sg2299
g2300
sg2301
g2302
sg2303
Nsg93
Nsg2304
g2245
sg2305
F3.5
sg8
I01
sg2306
Nsg44
Nsg1804
Nsg2307
(I0
tp3190
sg69
F1.5
sg2271
Nsbsg94
Nsg2387
g2388
sg2389
g3061
sg44
Nsg1902
g1903
sg35
Nsbasg2520
I01
sg1812
g0
(g1813
g2
Ntp3191
Rp3192
sg76
Nsg68
I01
sg2523
I01
sg82
g0
(g83
g84
((lp3193
(lp3194
tp3195
tp3196
Rp3197
sg90
I0
sg2529
I1
sg2530
Nsg91
I00
sg93
Nsg2531
g2881
sg94
Nsg2533
Vleft
p3198
sg44
Nsg1804
Nsg2242
I15
sg2535
(lp3199
g0
(g2912
g2
Ntp3200
Rp3201
(dp3202
g6
g7
sg41
F0.6
sg9
g4
sg2165
I01
sg8
I01
sg10
Nsg90
I0
sg43
Nsg2166
F5.4
sg2167
g1903
sg2168
I00
sg1881
F2.0
sg17
g18
sg2169
g2170
sg2118
g0
(g1865
g2
Ntp3203
Rp3204
(dp3205
g6
g7
sg8
I01
sg9
g4
sg10
Nsg1869
g0
(g1870
g2
Ntp3206
Rp3207
(dp3208
g1874
(lp3209
g1876
asg1877
Nsg1878
g1879
sg1880
g1879
sg1881
F10.0
sg1882
I400
sg1883
g1879
sbsg43
Nsg17
g18
sg1884
Nsg20
I01
sg23
Nsg57
I0
sg58
I0
sg25
Nsg26
Nsg11
Nsg29
I00
sg30
I00
sg31
(dp3210
sg1886
Nsg33
I00
sg1805
Nsg70
Nsg1804
Nsg1887
Nsg34
Nsg76
Nsg68
I01
sg1888
g2924
sg1890
V
p3211
sg1892
Nsg82
g0
(g83
g84
((lp3212
(lp3213
tp3214
tp3215
Rp3216
sg90
I0
sg1898
Nsg91
I01
sg93
Nsg1899
F1.2
sg94
g253
sg1900
I00
sg1901
I00
sg44
Nsg1902
g1903
sg1904
g2931
sg35
Nsbsg20
I01
sg23
Nsg2187
I00
sg25
Nsg26
Nsg11
Nsg2188
I00
sg29
I00
sg30
I00
sg31
(dp3217
sg2190
(I0
I1
tp3218
sg33
I00
sg2192
I2
sg1805
g1843
sg2193
I01
sg70
g1282
sg1804
Nsg2194
g3204
sg2195
g0
(g1865
g2
Ntp3219
Rp3220
(dp3221
g6
g7
sg8
I01
sg9
g4
sg10
Nsg1869
g0
(g1870
g2
Ntp3222
Rp3223
(dp3224
g1874
(lp3225
g1876
asg1877
Nsg1878
g1879
sg1880
g1879
sg1881
F10.0
sg1882
I400
sg1883
g1879
sbsg43
Nsg17
g18
sg1884
Nsg20
I01
sg23
Nsg57
I0
sg58
I1
sg25
Nsg26
Nsg11
Nsg29
I00
sg30
I00
sg31
(dp3226
sg1886
Nsg33
I00
sg1805
Nsg70
Nsg1804
Nsg1887
Nsg34
Nsg76
Nsg68
I01
sg1888
g2942
sg1890
V
p3227
sg1892
Nsg82
g0
(g83
g84
((lp3228
(lp3229
tp3230
tp3231
Rp3232
sg90
I0
sg1898
Nsg91
I01
sg93
Nsg1899
F1.2
sg94
g271
sg1900
I00
sg1901
I00
sg44
Nsg1902
g1903
sg1904
g2949
sg35
Nsbsg76
Nsg2212
I0
sg68
I01
sg82
g0
(g83
g84
((lp3233
(lp3234
tp3235
tp3236
Rp3237
sg2218
F3.4
sg2219
g0
(g2220
g2
Ntp3238
Rp3239
(dp3240
g6
g7
sg2224
g2225
sg2226
Nsg20
I01
sg2227
Nsg2228
I0
sg57
Nsg58
Nsg25
Nsg11
Nsg30
I00
sg31
(dp3241
sg33
I00
sg1805
Nsg2230
F0.6
sg2231
Nsg2232
g2233
sg2234
g2235
sg76
Nsg68
I01
sg2236
g2959
sg90
I0
sg91
I01
sg2238
I01
sg2239
I01
sg94
g248
sg2240
Nsg2241
I2
sg1902
g1903
sg2242
I5
sg9
g4
sg2243
Nsg10
Nsg43
Nsg17
g18
sg2244
g2245
sg23
Nsg26
Nsg29
I00
sg2246
Nsg35
Nsg2247
Nsg2248
g0
(g2249
g2
Ntp3242
Rp3243
(dp3244
g2248
I0
sg2253
Nsg2254
F1.0
sg94
g0
(g142
g2
Ntp3245
Rp3246
(dp3247
g50
I2
sg51
Nsg99
g111
(g112
(I0
tp3248
g114
tp3249
Rp3250
(I1
(L3L
L3L
tp3251
g121
I00
S'\x00\x00\x00\x00\x00\x00\xf0\xbf\x00\x00\x00\x00\x00\x00\x00\x00\x00\x00\x00\x00\x00\x00\x00\x00\x00\x00\x00\x00\x00\x00\x00\x00\x00\x00\x00\x00\x00\x00\xf0?\x00\x00\x00\x00\x00\x00\x00\x00\x00\x00\x00\x00\x00\x00\x00\x00\x00\x00\x00\x00\x00\x00\x00\x00\x00\x00\x00\x00\x00\x00\xf0?'
p3252
tp3253
bsg52
g7
sg53
(dp3254
sbsg2265
I00
sg2266
g2267
sg2268
Nsg1802
g2269
sg78
g2270
sg2271
g2974
sbsg2289
g2290
sg70
Nsg34
Nsg73
I01
sg2291
Nsg80
g2982
sg82
g0
(g83
g84
((lp3255
(lp3256
tp3257
tp3258
Rp3259
sg2298
I00
sg2299
g2300
sg2301
g2302
sg2303
Nsg93
Nsg2304
g2245
sg2305
F2.0
sg8
I01
sg2306
Nsg44
Nsg1804
Nsg2307
(I0
tp3260
sg69
F1.5
sg2271
Nsbsg91
I00
sg2309
g0
(g2220
g2
Ntp3261
Rp3262
(dp3263
g6
g7
sg8
I01
sg2301
g2302
sg9
g4
sg2224
g2225
sg2226
Nsg10
Nsg43
Nsg17
g18
sg2244
g2245
sg20
I01
sg2227
Nsg23
Nsg57
g111
(g112
(I0
tp3264
g114
tp3265
Rp3266
(I1
(L2L
tp3267
g121
I00
S'\x00\x00\x00\x00\x00\x00\x00\x00\x00\x00\x00\x00\x00\x00\x00\x00'
p3268
tp3269
bsg58
g111
(g112
(I0
tp3270
g114
tp3271
Rp3272
(I1
(L2L
tp3273
g121
I00
S'\x00\x00\x00\x00\x00\x00\x00\x00\x00\x00\x00\x00\x00\x00\xf0?'
p3274
tp3275
bsg25
Nsg26
Nsg11
Nsg2236
g3004
sg29
I00
sg2246
Nsg30
I00
sg31
(dp3276
sg2243
Nsg33
I00
sg2298
I00
sg1805
Nsg2247
Nsg2230
F1.0
sg2289
g2290
sg2231
Nsg1902
g2327
sg2248
g0
(g2249
g2
Ntp3277
Rp3278
(dp3279
g2248
g2331
sg2253
Nsg2254
Nsg94
g0
(g46
g2
Ntp3280
Rp3281
(dp3282
g50
I1
sg51
Nsg52
g7
sg53
(dp3283
sbsg2265
I00
sg2266
g2267
sg2268
Nsg1802
g2269
sg78
g2270
sg2271
g0
(g2272
g2
Ntp3284
Rp3285
(dp3286
g2276
I00
sg2277
Nsg2278
g111
(g112
(I0
tp3287
g114
tp3288
Rp3289
(I1
(L0L
L2L
tp3290
g121
I00
g2343
tp3291
bsg2285
I00
sg2286
F0.1111111111111111
sg2287
I1
sg2288
I00
sbsbsg34
Nsg2232
g2233
sg73
I01
sg2234
g2235
sg76
Nsg2305
F0.0
sg68
I01
sg2291
g111
(g112
(I0
tp3292
g114
tp3293
Rp3294
(I1
(L2L
L2L
tp3295
g121
I00
S'\x00\x00\x00\x00\x00\x00\x00\x00\x00\x00\x00\x00\x00\x00\x00\x00\x00\x00\x00\x00\x00\x00\xf0?\x00\x00\x00\x00\x00\x00\x00\x00'
p3296
tp3297
bsg80
g2351
sg82
g0
(g83
g84
((lp3298
(lp3299
tp3300
tp3301
Rp3302
sg90
I0
sg2299
g2300
sg2228
I0
sg2303
Nsg2242
I5
sg91
I01
sg93
F1.0
sg2304
g2245
sg2239
I00
sg94
g248
sg2306
Nsg2240
Nsg2238
I00
sg44
Nsg1804
Nsg2307
g3032
sg70
g1352
sg69
F0.8
sg35
Nsg2271
g0
(g2272
g2
Ntp3303
Rp3304
(dp3305
g2276
I00
sg2277
Nsg2278
g3294
sg2285
I00
sg2286
F0.1111111111111111
sg2287
I180
sg2288
I00
sbsbsg93
Nsg34
Nsg2361
g0
(g2220
g2
Ntp3306
Rp3307
(dp3308
g6
g7
sg2224
g2225
sg2226
Nsg20
I01
sg2227
Nsg2228
I0
sg57
Nsg58
Nsg25
Nsg11
Nsg30
I00
sg31
(dp3309
sg33
I00
sg1805
Nsg2230
F0.6
sg2231
Nsg2232
g2233
sg2234
g2235
sg76
Nsg68
I01
sg2236
g3040
sg90
I0
sg91
I01
sg2238
I01
sg2239
I01
sg94
g248
sg2240
Nsg2241
I2
sg1902
g1903
sg2242
I5
sg9
g4
sg2243
Nsg10
Nsg43
Nsg17
g18
sg2244
g2245
sg23
Nsg26
Nsg29
I00
sg2246
Nsg35
Nsg2247
Nsg2248
g0
(g2249
g2
Ntp3310
Rp3311
(dp3312
g2248
I1
sg2253
Nsg2254
F1.0
sg94
g0
(g142
g2
Ntp3313
Rp3314
(dp3315
g50
I2
sg51
Nsg99
g111
(g112
(I0
tp3316
g114
tp3317
Rp3318
(I1
(L3L
L3L
tp3319
g121
I00
S'\x00\x00\x00\x00\x00\x00\xf0?\x00\x00\x00\x00\x00\x00\x00\x00\x00\x00\x00\x00\x00\x00\x00\x00\x00\x00\x00\x00\x00\x00\x00\x00\x00\x00\x00\x00\x00\x00\xf0?\x00\x00\x00\x00\x00\x00\x00\x00\x00\x00\x00\x00\x00\x00\x00\x00\x00\x00\x00\x00\x00\x00\x00\x00\x00\x00\x00\x00\x00\x00\xf0?'
p3320
tp3321
bsg52
g7
sg53
(dp3322
sbsg2265
I00
sg2266
g2267
sg2268
Nsg1802
g2269
sg78
g2270
sg2271
g2974
sbsg2289
g2290
sg70
Nsg34
Nsg73
I01
sg2291
Nsg80
g3054
sg82
g0
(g83
g84
((lp3323
(lp3324
tp3325
tp3326
Rp3327
sg2298
I00
sg2299
g2300
sg2301
g2302
sg2303
Nsg93
Nsg2304
g2245
sg2305
F2.0
sg8
I01
sg2306
Nsg44
Nsg1804
Nsg2307
(I0
tp3328
sg69
F1.5
sg2271
Nsbsg94
Nsg2387
g2388
sg2389
g3061
sg44
Nsg1902
g1903
sg35
Nsbag0
(g2912
g2
Ntp3329
Rp3330
(dp3331
g6
g7
sg41
F0.6
sg9
g4
sg2165
I01
sg8
I01
sg10
Nsg90
I0
sg43
Nsg2166
F5.4
sg2167
g1903
sg2168
I00
sg1881
F2.0
sg17
g18
sg2169
g2170
sg2118
g0
(g1865
g2
Ntp3332
Rp3333
(dp3334
g6
g7
sg8
I01
sg9
g4
sg10
Nsg1869
g0
(g1870
g2
Ntp3335
Rp3336
(dp3337
g1874
(lp3338
g1876
asg1877
Nsg1878
g1879
sg1880
g1879
sg1881
F10.0
sg1882
I400
sg1883
g1879
sbsg43
Nsg17
g18
sg1884
Nsg20
I01
sg23
Nsg57
I0
sg58
I0
sg25
Nsg26
Nsg11
Nsg29
I00
sg30
I00
sg31
(dp3339
sg1886
Nsg33
I00
sg1805
Nsg70
Nsg1804
Nsg1887
Nsg34
Nsg76
Nsg68
I01
sg1888
g2924
sg1890
V
p3340
sg1892
Nsg82
g0
(g83
g84
((lp3341
(lp3342
tp3343
tp3344
Rp3345
sg90
I0
sg1898
Nsg91
I01
sg93
Nsg1899
F1.2
sg94
g307
sg1900
I00
sg1901
I00
sg44
Nsg1902
g1903
sg1904
g2931
sg35
Nsbsg20
I01
sg23
Nsg2187
I00
sg25
Nsg26
Nsg11
Nsg2188
I00
sg29
I00
sg30
I00
sg31
(dp3346
sg2190
(I0
I1
tp3347
sg33
I00
sg2192
I2
sg1805
g1843
sg2193
I01
sg70
g932
sg1804
Nsg2194
g3333
sg2195
g0
(g1865
g2
Ntp3348
Rp3349
(dp3350
g6
g7
sg8
I01
sg9
g4
sg10
Nsg1869
g0
(g1870
g2
Ntp3351
Rp3352
(dp3353
g1874
(lp3354
g1876
asg1877
Nsg1878
g1879
sg1880
g1879
sg1881
F10.0
sg1882
I400
sg1883
g1879
sbsg43
Nsg17
g18
sg1884
Nsg20
I01
sg23
Nsg57
I0
sg58
I1
sg25
Nsg26
Nsg11
Nsg29
I00
sg30
I00
sg31
(dp3355
sg1886
Nsg33
I00
sg1805
Nsg70
Nsg1804
Nsg1887
Nsg34
Nsg76
Nsg68
I01
sg1888
g2942
sg1890
V
p3356
sg1892
Nsg82
g0
(g83
g84
((lp3357
(lp3358
tp3359
tp3360
Rp3361
sg90
I0
sg1898
Nsg91
I01
sg93
Nsg1899
F1.2
sg94
g316
sg1900
I00
sg1901
I00
sg44
Nsg1902
g1903
sg1904
g2949
sg35
Nsbsg76
Nsg2212
I0
sg68
I01
sg82
g0
(g83
g84
((lp3362
(lp3363
tp3364
tp3365
Rp3366
sg2218
F3.4
sg2219
g0
(g2220
g2
Ntp3367
Rp3368
(dp3369
g6
g7
sg2224
g2225
sg2226
Nsg20
I01
sg2227
Nsg2228
I0
sg57
Nsg58
Nsg25
Nsg11
Nsg30
I00
sg31
(dp3370
sg33
I00
sg1805
Nsg2230
F0.6
sg2231
Nsg2232
g2233
sg2234
g2235
sg76
Nsg68
I01
sg2236
g2959
sg90
I0
sg91
I01
sg2238
I01
sg2239
I01
sg94
g248
sg2240
Nsg2241
I2
sg1902
g1903
sg2242
I5
sg9
g4
sg2243
Nsg10
Nsg43
Nsg17
g18
sg2244
g2245
sg23
Nsg26
Nsg29
I00
sg2246
Nsg35
Nsg2247
Nsg2248
g0
(g2249
g2
Ntp3371
Rp3372
(dp3373
g2248
I0
sg2253
Nsg2254
F1.0
sg94
g0
(g142
g2
Ntp3374
Rp3375
(dp3376
g50
I2
sg51
Nsg99
g111
(g112
(I0
tp3377
g114
tp3378
Rp3379
(I1
(L3L
L3L
tp3380
g121
I00
S'\x00\x00\x00\x00\x00\x00\xf0\xbf\x00\x00\x00\x00\x00\x00\x00\x00\x00\x00\x00\x00\x00\x00\x00\x00\x00\x00\x00\x00\x00\x00\x00\x00\x00\x00\x00\x00\x00\x00\xf0?\x00\x00\x00\x00\x00\x00\x00\x00\x00\x00\x00\x00\x00\x00\x00\x00\x00\x00\x00\x00\x00\x00\x00\x00\x00\x00\x00\x00\x00\x00\xf0?'
p3381
tp3382
bsg52
g7
sg53
(dp3383
sbsg2265
I00
sg2266
g2267
sg2268
Nsg1802
g2269
sg78
g2270
sg2271
g2974
sbsg2289
g2290
sg70
Nsg34
Nsg73
I01
sg2291
Nsg80
g2982
sg82
g0
(g83
g84
((lp3384
(lp3385
tp3386
tp3387
Rp3388
sg2298
I00
sg2299
g2300
sg2301
g2302
sg2303
Nsg93
Nsg2304
g2245
sg2305
F2.0
sg8
I01
sg2306
Nsg44
Nsg1804
Nsg2307
(I0
tp3389
sg69
F1.5
sg2271
Nsbsg91
I00
sg2309
g0
(g2220
g2
Ntp3390
Rp3391
(dp3392
g6
g7
sg8
I01
sg2301
g2302
sg9
g4
sg2224
g2225
sg2226
Nsg10
Nsg43
Nsg17
g18
sg2244
g2245
sg20
I01
sg2227
Nsg23
Nsg57
g111
(g112
(I0
tp3393
g114
tp3394
Rp3395
(I1
(L2L
tp3396
g121
I00
S'\x00\x00\x00\x00\x00\x00\x00\x00\x00\x00\x00\x00\x00\x00\x00\x00'
p3397
tp3398
bsg58
g111
(g112
(I0
tp3399
g114
tp3400
Rp3401
(I1
(L2L
tp3402
g121
I00
S'\x00\x00\x00\x00\x00\x00\x00\x00\x00\x00\x00\x00\x00\x00\xf0?'
p3403
tp3404
bsg25
Nsg26
Nsg11
Nsg2236
g3004
sg29
I00
sg2246
Nsg30
I00
sg31
(dp3405
sg2243
Nsg33
I00
sg2298
I00
sg1805
Nsg2247
Nsg2230
F1.0
sg2289
g2290
sg2231
Nsg1902
g2327
sg2248
g0
(g2249
g2
Ntp3406
Rp3407
(dp3408
g2248
g2331
sg2253
Nsg2254
Nsg94
g0
(g46
g2
Ntp3409
Rp3410
(dp3411
g50
I1
sg51
Nsg52
g7
sg53
(dp3412
sbsg2265
I00
sg2266
g2267
sg2268
Nsg1802
g2269
sg78
g2270
sg2271
g0
(g2272
g2
Ntp3413
Rp3414
(dp3415
g2276
I00
sg2277
Nsg2278
g111
(g112
(I0
tp3416
g114
tp3417
Rp3418
(I1
(L0L
L2L
tp3419
g121
I00
g2343
tp3420
bsg2285
I00
sg2286
F0.1111111111111111
sg2287
I1
sg2288
I00
sbsbsg34
Nsg2232
g2233
sg73
I01
sg2234
g2235
sg76
Nsg2305
F0.0
sg68
I01
sg2291
g111
(g112
(I0
tp3421
g114
tp3422
Rp3423
(I1
(L2L
L2L
tp3424
g121
I00
S'\x00\x00\x00\x00\x00\x00\x00\x00\x00\x00\x00\x00\x00\x00\x00\x00\x00\x00\x00\x00\x00\x00\xf0?\x00\x00\x00\x00\x00\x00\x00\x00'
p3425
tp3426
bsg80
g2351
sg82
g0
(g83
g84
((lp3427
(lp3428
tp3429
tp3430
Rp3431
sg90
I0
sg2299
g2300
sg2228
I0
sg2303
Nsg2242
I5
sg91
I01
sg93
F1.0
sg2304
g2245
sg2239
I00
sg94
g248
sg2306
Nsg2240
Nsg2238
I00
sg44
Nsg1804
Nsg2307
g3032
sg70
g1562
sg69
F0.8
sg35
Nsg2271
g0
(g2272
g2
Ntp3432
Rp3433
(dp3434
g2276
I00
sg2277
Nsg2278
g3423
sg2285
I00
sg2286
F0.1111111111111111
sg2287
I180
sg2288
I00
sbsbsg93
Nsg34
Nsg2361
g0
(g2220
g2
Ntp3435
Rp3436
(dp3437
g6
g7
sg2224
g2225
sg2226
Nsg20
I01
sg2227
Nsg2228
I0
sg57
Nsg58
Nsg25
Nsg11
Nsg30
I00
sg31
(dp3438
sg33
I00
sg1805
Nsg2230
F0.6
sg2231
Nsg2232
g2233
sg2234
g2235
sg76
Nsg68
I01
sg2236
g3040
sg90
I0
sg91
I01
sg2238
I01
sg2239
I01
sg94
g248
sg2240
Nsg2241
I2
sg1902
g1903
sg2242
I5
sg9
g4
sg2243
Nsg10
Nsg43
Nsg17
g18
sg2244
g2245
sg23
Nsg26
Nsg29
I00
sg2246
Nsg35
Nsg2247
Nsg2248
g0
(g2249
g2
Ntp3439
Rp3440
(dp3441
g2248
I1
sg2253
Nsg2254
F1.0
sg94
g0
(g142
g2
Ntp3442
Rp3443
(dp3444
g50
I2
sg51
Nsg99
g111
(g112
(I0
tp3445
g114
tp3446
Rp3447
(I1
(L3L
L3L
tp3448
g121
I00
S'\x00\x00\x00\x00\x00\x00\xf0?\x00\x00\x00\x00\x00\x00\x00\x00\x00\x00\x00\x00\x00\x00\x00\x00\x00\x00\x00\x00\x00\x00\x00\x00\x00\x00\x00\x00\x00\x00\xf0?\x00\x00\x00\x00\x00\x00\x00\x00\x00\x00\x00\x00\x00\x00\x00\x00\x00\x00\x00\x00\x00\x00\x00\x00\x00\x00\x00\x00\x00\x00\xf0?'
p3449
tp3450
bsg52
g7
sg53
(dp3451
sbsg2265
I00
sg2266
g2267
sg2268
Nsg1802
g2269
sg78
g2270
sg2271
g2974
sbsg2289
g2290
sg70
Nsg34
Nsg73
I01
sg2291
Nsg80
g3054
sg82
g0
(g83
g84
((lp3452
(lp3453
tp3454
tp3455
Rp3456
sg2298
I00
sg2299
g2300
sg2301
g2302
sg2303
Nsg93
Nsg2304
g2245
sg2305
F2.0
sg8
I01
sg2306
Nsg44
Nsg1804
Nsg2307
(I0
tp3457
sg69
F1.5
sg2271
Nsbsg94
Nsg2387
g2388
sg2389
g3061
sg44
Nsg1902
g1903
sg35
Nsbasg35
Nsg2795
(dp3458
g2152
I01
sg2154
I00
ssg2797
I01
sbsS'_axisbelow'
p3459
Vline
p3460
sg8
I01
sS'lines'
p3461
(lp3462
g0
(g2220
g2
Ntp3463
Rp3464
(dp3465
g6
V_line0
p3466
sg1854
I2
sg2224
g2225
sg2226
Nsg20
I01
sg2227
Nsg2228
I0
sg57
g111
(g112
(I0
tp3467
g114
tp3468
Rp3469
(I1
(L50L
tp3470
g121
I00
S"\x00\x00\x00\x00\x00\x00\x00\x00\x8f\x8d\xabaG^\xc0?\xee\xcb\x97o\xe0;\xd0?\xddbN\xe6_\x04\xd8?\xa2\x86[\x97\xeag\xdf?\xa3K\xfb\xb1\xb8#\xe3?\xc3\xacg\r\x08C\xe6?K\xde\x05u\xc3\x04\xe9?\xfa\x9b\x10[T]\xeb?5\xe1\xdcB\xdeB\xed?\x94\x9b\x904h\xad\xee?\xc6\x1a_@\xfe\x96\xef?\xcaOl\x84\xca\xfb\xef? \xa0'L%\xda\xef?i\xe9X\x05\x9c2\xef?\xcd\t\xa1\xed\xee\x07\xee?\xff\xe70\x82\x05_\xec?\x8d\x93R\xe2\xd9>\xea?2al{[\xb0\xe7?\xb8\xef\xc5yI\xbe\xe4?*\xd4\xf0\x9b\x05u\xe1?\xc3\xabqM\xc0\xc4\xdb?\xc0/\xc7\xa8\xbb*\xd4?\xe3oO\xcd\xe2w\xc8?\xdd\xf5v\xeb\xe7f\xb0?\xac\xf5v\xeb\xe7f\xb0\xbf\xcboO\xcd\xe2w\xc8\xbf\xb4/\xc7\xa8\xbb*\xd4\xbf\xbf\xabqM\xc0\xc4\xdb\xbf%\xd4\xf0\x9b\x05u\xe1\xbf\xb3\xef\xc5yI\xbe\xe4\xbf.al{[\xb0\xe7\xbf\x8a\x93R\xe2\xd9>\xea\xbf\xfe\xe70\x82\x05_\xec\xbf\xcb\t\xa1\xed\xee\x07\xee\xbfi\xe9X\x05\x9c2\xef\xbf\x1f\xa0'L%\xda\xef\xbf\xcaOl\x84\xca\xfb\xef\xbf\xc8\x1a_@\xfe\x96\xef\xbf\x96\x9b\x904h\xad\xee\xbf9\xe1\xdcB\xdeB\xed\xbf\xfd\x9b\x10[T]\xeb\xbfL\xde\x05u\xc3\x04\xe9\xbf\xc8\xacg\r\x08C\xe6\xbf\xa6K\xfb\xb1\xb8#\xe3\xbf\xb0\x86[\x97\xeag\xdf\xbf\xe6bN\xe6_\x04\xd8\xbf\x00\xcc\x97o\xe0;\xd0\xbf\xa6\x8d\xabaG^\xc0\xbf\x07\\\x143&\xa6\xb1\xbc"
p3471
tp3472
bsg58
g111
(g112
(I0
tp3473
g114
tp3474
Rp3475
(I1
(L50L
tp3476
g121
I00
S"\x00\x00\x00\x00\x00\x00\x00\x00\x927k\xb4\xc8i\xc0?\x927k\xb4\xc8i\xd0?[\xd3\xa0\x0e\xad\x9e\xd8?\x927k\xb4\xc8i\xe0?v\x05\x86\xe1:\x84\xe4?[\xd3\xa0\x0e\xad\x9e\xe8?@\xa1\xbb;\x1f\xb9\xec?\x927k\xb4\xc8i\xf0?\x84\x9e\xf8\xca\x01w\xf2?v\x05\x86\xe1:\x84\xf4?il\x13\xf8s\x91\xf6?[\xd3\xa0\x0e\xad\x9e\xf8?M:.%\xe6\xab\xfa?@\xa1\xbb;\x1f\xb9\xfc?2\x08IRX\xc6\xfe?\x927k\xb4\xc8i\x00@\x0b\xeb\xb1?ep\x01@\x84\x9e\xf8\xca\x01w\x02@\xfdQ?V\x9e}\x03@v\x05\x86\xe1:\x84\x04@\xf0\xb8\xccl\xd7\x8a\x05@il\x13\xf8s\x91\x06@\xe2\x1fZ\x83\x10\x98\x07@[\xd3\xa0\x0e\xad\x9e\x08@\xd4\x86\xe7\x99I\xa5\t@M:.%\xe6\xab\n@\xc6\xedt\xb0\x82\xb2\x0b@@\xa1\xbb;\x1f\xb9\x0c@\xb9T\x02\xc7\xbb\xbf\r@2\x08IRX\xc6\x0e@\xab\xbb\x8f\xdd\xf4\xcc\x0f@\x927k\xb4\xc8i\x10@O\x91\x0e\xfa\x16\xed\x10@\x0b\xeb\xb1?ep\x11@\xc8DU\x85\xb3\xf3\x11@\x84\x9e\xf8\xca\x01w\x12@A\xf8\x9b\x10P\xfa\x12@\xfdQ?V\x9e}\x13@\xba\xab\xe2\x9b\xec\x00\x14@v\x05\x86\xe1:\x84\x14@3_)'\x89\x07\x15@\xf0\xb8\xccl\xd7\x8a\x15@\xac\x12p\xb2%\x0e\x16@il\x13\xf8s\x91\x16@%\xc6\xb6=\xc2\x14\x17@\xe2\x1fZ\x83\x10\x98\x17@\x9ey\xfd\xc8^\x1b\x18@[\xd3\xa0\x0e\xad\x9e\x18@\x18-DT\xfb!\x19@"
p3477
tp3478
bsg25
Nsg11
Nsg30
I00
sg31
(dp3479
sg33
I00
sg1805
g1843
sg2230
F1.0
sg2231
Nsg2232
g2233
sg2234
g2235
sg76
Nsg68
I01
sg2236
g111
(g112
(I0
tp3480
g114
tp3481
Rp3482
(I1
(L50L
tp3483
g121
I00
S"\x00\x00\x00\x00\x00\x00\x00\x00\x927k\xb4\xc8i\xc0?\x927k\xb4\xc8i\xd0?[\xd3\xa0\x0e\xad\x9e\xd8?\x927k\xb4\xc8i\xe0?v\x05\x86\xe1:\x84\xe4?[\xd3\xa0\x0e\xad\x9e\xe8?@\xa1\xbb;\x1f\xb9\xec?\x927k\xb4\xc8i\xf0?\x84\x9e\xf8\xca\x01w\xf2?v\x05\x86\xe1:\x84\xf4?il\x13\xf8s\x91\xf6?[\xd3\xa0\x0e\xad\x9e\xf8?M:.%\xe6\xab\xfa?@\xa1\xbb;\x1f\xb9\xfc?2\x08IRX\xc6\xfe?\x927k\xb4\xc8i\x00@\x0b\xeb\xb1?ep\x01@\x84\x9e\xf8\xca\x01w\x02@\xfdQ?V\x9e}\x03@v\x05\x86\xe1:\x84\x04@\xf0\xb8\xccl\xd7\x8a\x05@il\x13\xf8s\x91\x06@\xe2\x1fZ\x83\x10\x98\x07@[\xd3\xa0\x0e\xad\x9e\x08@\xd4\x86\xe7\x99I\xa5\t@M:.%\xe6\xab\n@\xc6\xedt\xb0\x82\xb2\x0b@@\xa1\xbb;\x1f\xb9\x0c@\xb9T\x02\xc7\xbb\xbf\r@2\x08IRX\xc6\x0e@\xab\xbb\x8f\xdd\xf4\xcc\x0f@\x927k\xb4\xc8i\x10@O\x91\x0e\xfa\x16\xed\x10@\x0b\xeb\xb1?ep\x11@\xc8DU\x85\xb3\xf3\x11@\x84\x9e\xf8\xca\x01w\x12@A\xf8\x9b\x10P\xfa\x12@\xfdQ?V\x9e}\x13@\xba\xab\xe2\x9b\xec\x00\x14@v\x05\x86\xe1:\x84\x14@3_)'\x89\x07\x15@\xf0\xb8\xccl\xd7\x8a\x15@\xac\x12p\xb2%\x0e\x16@il\x13\xf8s\x91\x16@%\xc6\xb6=\xc2\x14\x17@\xe2\x1fZ\x83\x10\x98\x17@\x9ey\xfd\xc8^\x1b\x18@[\xd3\xa0\x0e\xad\x9e\x18@\x18-DT\xfb!\x19@"
p3484
tp3485
bsg90
I0
sg91
I01
sg2238
I00
sg2239
I00
sg94
g242
sg2240
Nsg1902
V#1f77b4
p3486
sg2242
I5
sg9
g4
sg2243
Nsg10
Nsg2306
Nsg43
Nsg17
g18
sg2244
g2245
sg23
Nsg26
Nsg29
I00
sg2246
Nsg35
Nsg2247
Nsg2248
g0
(g2249
g2
Ntp3487
Rp3488
(dp3489
g2248
g2331
sg2253
Nsg2254
Nsg94
g0
(g46
g2
Ntp3490
Rp3491
(dp3492
g50
I1
sg51
Nsg52
g7
sg53
(dp3493
sbsg2265
I00
sg2266
g2267
sg2268
Nsg1802
g2269
sg78
g2270
sg2271
g0
(g2272
g2
Ntp3494
Rp3495
(dp3496
g2276
I00
sg2277
Nsg2278
g111
(g112
(I0
tp3497
g114
tp3498
Rp3499
(I1
(L0L
L2L
tp3500
g121
I00
g2343
tp3501
bsg2285
I00
sg2286
F0.1111111111111111
sg2287
I1
sg2288
I00
sbsbsg2289
g2290
sg70
g845
sg34
Nsg73
I01
sg2291
g111
(g112
(I0
tp3502
g114
tp3503
Rp3504
(I1
(L50L
L2L
tp3505
g121
I00
S"\x00\x00\x00\x00\x00\x00\x00\x00\x00\x00\x00\x00\x00\x00\x00\x00\x927k\xb4\xc8i\xc0?\x8f\x8d\xabaG^\xc0?\x927k\xb4\xc8i\xd0?\xee\xcb\x97o\xe0;\xd0?[\xd3\xa0\x0e\xad\x9e\xd8?\xddbN\xe6_\x04\xd8?\x927k\xb4\xc8i\xe0?\xa2\x86[\x97\xeag\xdf?v\x05\x86\xe1:\x84\xe4?\xa3K\xfb\xb1\xb8#\xe3?[\xd3\xa0\x0e\xad\x9e\xe8?\xc3\xacg\r\x08C\xe6?@\xa1\xbb;\x1f\xb9\xec?K\xde\x05u\xc3\x04\xe9?\x927k\xb4\xc8i\xf0?\xfa\x9b\x10[T]\xeb?\x84\x9e\xf8\xca\x01w\xf2?5\xe1\xdcB\xdeB\xed?v\x05\x86\xe1:\x84\xf4?\x94\x9b\x904h\xad\xee?il\x13\xf8s\x91\xf6?\xc6\x1a_@\xfe\x96\xef?[\xd3\xa0\x0e\xad\x9e\xf8?\xcaOl\x84\xca\xfb\xef?M:.%\xe6\xab\xfa? \xa0'L%\xda\xef?@\xa1\xbb;\x1f\xb9\xfc?i\xe9X\x05\x9c2\xef?2\x08IRX\xc6\xfe?\xcd\t\xa1\xed\xee\x07\xee?\x927k\xb4\xc8i\x00@\xff\xe70\x82\x05_\xec?\x0b\xeb\xb1?ep\x01@\x8d\x93R\xe2\xd9>\xea?\x84\x9e\xf8\xca\x01w\x02@2al{[\xb0\xe7?\xfdQ?V\x9e}\x03@\xb8\xef\xc5yI\xbe\xe4?v\x05\x86\xe1:\x84\x04@*\xd4\xf0\x9b\x05u\xe1?\xf0\xb8\xccl\xd7\x8a\x05@\xc3\xabqM\xc0\xc4\xdb?il\x13\xf8s\x91\x06@\xc0/\xc7\xa8\xbb*\xd4?\xe2\x1fZ\x83\x10\x98\x07@\xe3oO\xcd\xe2w\xc8?[\xd3\xa0\x0e\xad\x9e\x08@\xdd\xf5v\xeb\xe7f\xb0?\xd4\x86\xe7\x99I\xa5\t@\xac\xf5v\xeb\xe7f\xb0\xbfM:.%\xe6\xab\n@\xcboO\xcd\xe2w\xc8\xbf\xc6\xedt\xb0\x82\xb2\x0b@\xb4/\xc7\xa8\xbb*\xd4\xbf@\xa1\xbb;\x1f\xb9\x0c@\xbf\xabqM\xc0\xc4\xdb\xbf\xb9T\x02\xc7\xbb\xbf\r@%\xd4\xf0\x9b\x05u\xe1\xbf2\x08IRX\xc6\x0e@\xb3\xef\xc5yI\xbe\xe4\xbf\xab\xbb\x8f\xdd\xf4\xcc\x0f@.al{[\xb0\xe7\xbf\x927k\xb4\xc8i\x10@\x8a\x93R\xe2\xd9>\xea\xbfO\x91\x0e\xfa\x16\xed\x10@\xfe\xe70\x82\x05_\xec\xbf\x0b\xeb\xb1?ep\x11@\xcb\t\xa1\xed\xee\x07\xee\xbf\xc8DU\x85\xb3\xf3\x11@i\xe9X\x05\x9c2\xef\xbf\x84\x9e\xf8\xca\x01w\x12@\x1f\xa0'L%\xda\xef\xbfA\xf8\x9b\x10P\xfa\x12@\xcaOl\x84\xca\xfb\xef\xbf\xfdQ?V\x9e}\x13@\xc8\x1a_@\xfe\x96\xef\xbf\xba\xab\xe2\x9b\xec\x00\x14@\x96\x9b\x904h\xad\xee\xbfv\x05\x86\xe1:\x84\x14@9\xe1\xdcB\xdeB\xed\xbf3_)'\x89\x07\x15@\xfd\x9b\x10[T]\xeb\xbf\xf0\xb8\xccl\xd7\x8a\x15@L\xde\x05u\xc3\x04\xe9\xbf\xac\x12p\xb2%\x0e\x16@\xc8\xacg\r\x08C\xe6\xbfil\x13\xf8s\x91\x16@\xa6K\xfb\xb1\xb8#\xe3\xbf%\xc6\xb6=\xc2\x14\x17@\xb0\x86[\x97\xeag\xdf\xbf\xe2\x1fZ\x83\x10\x98\x17@\xe6bN\xe6_\x04\xd8\xbf\x9ey\xfd\xc8^\x1b\x18@\x00\xcc\x97o\xe0;\xd0\xbf[\xd3\xa0\x0e\xad\x9e\x18@\xa6\x8d\xabaG^\xc0\xbf\x18-DT\xfb!\x19@\x07\\\x143&\xa6\xb1\xbc"
p3506
tp3507
bsg80
g2351
sg82
g0
(g83
g84
((lp3508
(lp3509
tp3510
tp3511
Rp3512
sg2298
I00
sg2299
g2300
sg2301
g2302
sg2303
Nsg93
Nsg2304
g2245
sg2305
F6.0
sg8
I01
sS'_ycid'
p3513
I2
sg44
Nsg1804
Nsg2307
g111
(g112
(I0
tp3514
g114
tp3515
Rp3516
(I1
(L50L
tp3517
g121
I00
S"\x00\x00\x00\x00\x00\x00\x00\x00\x8f\x8d\xabaG^\xc0?\xee\xcb\x97o\xe0;\xd0?\xddbN\xe6_\x04\xd8?\xa2\x86[\x97\xeag\xdf?\xa3K\xfb\xb1\xb8#\xe3?\xc3\xacg\r\x08C\xe6?K\xde\x05u\xc3\x04\xe9?\xfa\x9b\x10[T]\xeb?5\xe1\xdcB\xdeB\xed?\x94\x9b\x904h\xad\xee?\xc6\x1a_@\xfe\x96\xef?\xcaOl\x84\xca\xfb\xef? \xa0'L%\xda\xef?i\xe9X\x05\x9c2\xef?\xcd\t\xa1\xed\xee\x07\xee?\xff\xe70\x82\x05_\xec?\x8d\x93R\xe2\xd9>\xea?2al{[\xb0\xe7?\xb8\xef\xc5yI\xbe\xe4?*\xd4\xf0\x9b\x05u\xe1?\xc3\xabqM\xc0\xc4\xdb?\xc0/\xc7\xa8\xbb*\xd4?\xe3oO\xcd\xe2w\xc8?\xdd\xf5v\xeb\xe7f\xb0?\xac\xf5v\xeb\xe7f\xb0\xbf\xcboO\xcd\xe2w\xc8\xbf\xb4/\xc7\xa8\xbb*\xd4\xbf\xbf\xabqM\xc0\xc4\xdb\xbf%\xd4\xf0\x9b\x05u\xe1\xbf\xb3\xef\xc5yI\xbe\xe4\xbf.al{[\xb0\xe7\xbf\x8a\x93R\xe2\xd9>\xea\xbf\xfe\xe70\x82\x05_\xec\xbf\xcb\t\xa1\xed\xee\x07\xee\xbfi\xe9X\x05\x9c2\xef\xbf\x1f\xa0'L%\xda\xef\xbf\xcaOl\x84\xca\xfb\xef\xbf\xc8\x1a_@\xfe\x96\xef\xbf\x96\x9b\x904h\xad\xee\xbf9\xe1\xdcB\xdeB\xed\xbf\xfd\x9b\x10[T]\xeb\xbfL\xde\x05u\xc3\x04\xe9\xbf\xc8\xacg\r\x08C\xe6\xbf\xa6K\xfb\xb1\xb8#\xe3\xbf\xb0\x86[\x97\xeag\xdf\xbf\xe6bN\xe6_\x04\xd8\xbf\x00\xcc\x97o\xe0;\xd0\xbf\xa6\x8d\xabaG^\xc0\xbf\x07\\\x143&\xa6\xb1\xbc"
p3518
tp3519
bsg69
F1.5
sg2271
g0
(g2272
g2
Ntp3520
Rp3521
(dp3522
g2276
I00
sg2277
Nsg2278
g3504
sg2285
I00
sg2286
F0.1111111111111111
sg2287
I1
sg2288
I00
sbsbasg3513
I1
sS'spines'
p3523
ccollections
OrderedDict
p3524
((lp3525
(lp3526
Vleft
p3527
ag0
(cmatplotlib.spines
Spine
p3528
g2
Ntp3529
Rp3530
(dp3531
g6
g7
sg2100
I00
sg42
I01
sg9
g4
sS'_bounds'
p3532
Nsg8
I01
sg10
Nsg43
Nsg17
g18
sg44
Nsg20
I01
sg2078
g2841
sg45
g0
(g46
g2
Ntp3533
Rp3534
(dp3535
g50
I1
sg51
Nsg52
g7
sg53
(dp3536
sbsg55
g1913
sg23
Nsg25
Nsg59
g1903
sg11
Nsg29
I00
sg30
I00
sg31
(dp3537
sg1800
(NNtp3538
sg2014
(Voutward
p3539
F0.0
tp3540
sg33
I00
sg67
Nsg68
I01
sg69
F0.8
sS'_patch_type'
p3541
Vline
p3542
sg34
Nsg72
Nsg73
I01
sg74
Nsg75
Vnone
p3543
sg76
Nsg77
g1972
sg78
g79
sS'_patch_transform'
p3544
g0
(g46
g2
Ntp3545
Rp3546
(dp3547
g50
I1
sg51
Nsg52
g7
sg53
(dp3548
sbsg80
g81
sg82
g0
(g83
g84
((lp3549
(lp3550
tp3551
tp3552
Rp3553
sg90
I0
sS'_spine_transform'
p3554
(Videntity
p3555
g0
(g46
g2
Ntp3556
Rp3557
(dp3558
g50
I1
sg51
Nsg52
g7
sg53
(dp3559
sbtp3560
sg91
I01
sg93
NsS'spine_type'
p3561
g3527
sg94
g248
sg70
Nsg2241
F2.5
sg1802
Vprojecting
p3562
sg1804
Nsg26
Nsg1805
g1843
sg35
Nsg2271
g0
(g2272
g2
Ntp3563
Rp3564
(dp3565
g2276
I00
sg2277
Nsg2278
g111
(g112
(I0
tp3566
g114
tp3567
Rp3568
(I1
(L2L
L2L
tp3569
g121
I00
S'\x00\x00\x00\x00\x00\x00\x00\x00\x00\x00\x00\x00\x00\x00*@\x00\x00\x00\x00\x00\x00\x00\x00\x00\x00\x00\x00\x00\x00*@'
p3570
tp3571
bsg2285
I00
sg2286
F0.1111111111111111
sg2287
I1
sg2288
I00
sbsbaa(lp3572
Vright
p3573
ag0
(g3528
g2
Ntp3574
Rp3575
(dp3576
g6
g7
sg2100
I00
sg42
I01
sg9
g4
sg3532
Nsg8
I01
sg10
Nsg43
Nsg17
g18
sg44
Nsg20
I01
sg2078
g2841
sg45
g0
(g46
g2
Ntp3577
Rp3578
(dp3579
g50
I1
sg51
Nsg52
g7
sg53
(dp3580
sbsg55
g1913
sg23
Nsg25
Nsg59
g1903
sg11
Nsg29
I00
sg30
I00
sg31
(dp3581
sg1800
(NNtp3582
sg2014
g3540
sg33
I00
sg67
Nsg68
I01
sg69
F0.8
sg3541
g3542
sg34
Nsg72
Nsg73
I01
sg74
Nsg75
g3543
sg76
Nsg77
g1972
sg78
g79
sg3544
g0
(g46
g2
Ntp3583
Rp3584
(dp3585
g50
I1
sg51
Nsg52
g7
sg53
(dp3586
sbsg80
g81
sg82
g0
(g83
g84
((lp3587
(lp3588
tp3589
tp3590
Rp3591
sg90
I0
sg3554
(g3555
g0
(g46
g2
Ntp3592
Rp3593
(dp3594
g50
I1
sg51
Nsg52
g7
sg53
(dp3595
sbtp3596
sg91
I01
sg93
Nsg3561
g3573
sg94
g248
sg70
Nsg2241
F2.5
sg1802
g3562
sg1804
Nsg26
Nsg1805
g1843
sg35
Nsg2271
g0
(g2272
g2
Ntp3597
Rp3598
(dp3599
g2276
I00
sg2277
Nsg2278
g111
(g112
(I0
tp3600
g114
tp3601
Rp3602
(I1
(L2L
L2L
tp3603
g121
I00
S'\x00\x00\x00\x00\x00\x00\xf0?\x00\x00\x00\x00\x00\x00*@\x00\x00\x00\x00\x00\x00\xf0?\x00\x00\x00\x00\x00\x00*@'
p3604
tp3605
bsg2285
I00
sg2286
F0.1111111111111111
sg2287
I1
sg2288
I00
sbsbaa(lp3606
Vbottom
p3607
ag0
(g3528
g2
Ntp3608
Rp3609
(dp3610
g6
g7
sg2100
I00
sg42
I01
sg9
g4
sg3532
Nsg8
I01
sg10
Nsg43
Nsg17
g18
sg44
Nsg20
I01
sg2078
g2046
sg45
g0
(g46
g2
Ntp3611
Rp3612
(dp3613
g50
I1
sg51
Nsg52
g7
sg53
(dp3614
sbsg55
g1913
sg23
Nsg25
Nsg59
g1903
sg11
Nsg29
I00
sg30
I00
sg31
(dp3615
sg1800
(NNtp3616
sg2014
g3540
sg33
I00
sg67
Nsg68
I01
sg69
F0.8
sg3541
g3542
sg34
Nsg72
Nsg73
I01
sg74
Nsg75
g3543
sg76
Nsg77
g1972
sg78
g79
sg3544
g0
(g46
g2
Ntp3617
Rp3618
(dp3619
g50
I1
sg51
Nsg52
g7
sg53
(dp3620
sbsg80
g81
sg82
g0
(g83
g84
((lp3621
(lp3622
tp3623
tp3624
Rp3625
sg90
I0
sg3554
(g3555
g0
(g46
g2
Ntp3626
Rp3627
(dp3628
g50
I1
sg51
Nsg52
g7
sg53
(dp3629
sbtp3630
sg91
I01
sg93
Nsg3561
g3607
sg94
g169
sg70
Nsg2241
F2.5
sg1802
g3562
sg1804
Nsg26
Nsg1805
g1843
sg35
Nsg2271
g0
(g2272
g2
Ntp3631
Rp3632
(dp3633
g2276
I00
sg2277
Nsg2278
g111
(g112
(I0
tp3634
g114
tp3635
Rp3636
(I1
(L2L
L2L
tp3637
g121
I00
S'\x00\x00\x00\x00\x00\x00*@\x00\x00\x00\x00\x00\x00\x00\x00\x00\x00\x00\x00\x00\x00*@\x00\x00\x00\x00\x00\x00\x00\x00'
p3638
tp3639
bsg2285
I00
sg2286
F0.1111111111111111
sg2287
I1
sg2288
I00
sbsbaa(lp3640
Vtop
p3641
ag0
(g3528
g2
Ntp3642
Rp3643
(dp3644
g6
g7
sg2100
I00
sg42
I01
sg9
g4
sg3532
Nsg8
I01
sg10
Nsg43
Nsg17
g18
sg44
Nsg20
I01
sg2078
g2046
sg45
g0
(g46
g2
Ntp3645
Rp3646
(dp3647
g50
I1
sg51
Nsg52
g7
sg53
(dp3648
sbsg55
g1913
sg23
Nsg25
Nsg59
g1903
sg11
Nsg29
I00
sg30
I00
sg31
(dp3649
sg1800
(NNtp3650
sg2014
g3540
sg33
I00
sg67
Nsg68
I01
sg69
F0.8
sg3541
g3542
sg34
Nsg72
Nsg73
I01
sg74
Nsg75
g3543
sg76
Nsg77
g1972
sg78
g79
sg3544
g0
(g46
g2
Ntp3651
Rp3652
(dp3653
g50
I1
sg51
Nsg52
g7
sg53
(dp3654
sbsg80
g81
sg82
g0
(g83
g84
((lp3655
(lp3656
tp3657
tp3658
Rp3659
sg90
I0
sg3554
(g3555
g0
(g46
g2
Ntp3660
Rp3661
(dp3662
g50
I1
sg51
Nsg52
g7
sg53
(dp3663
sbtp3664
sg91
I01
sg93
Nsg3561
g3641
sg94
g169
sg70
Nsg2241
F2.5
sg1802
g3562
sg1804
Nsg26
Nsg1805
g1843
sg35
Nsg2271
g0
(g2272
g2
Ntp3665
Rp3666
(dp3667
g2276
I00
sg2277
Nsg2278
g111
(g112
(I0
tp3668
g114
tp3669
Rp3670
(I1
(L2L
L2L
tp3671
g121
I00
S'\x00\x00\x00\x00\x00\x00*@\x00\x00\x00\x00\x00\x00\xf0?\x00\x00\x00\x00\x00\x00*@\x00\x00\x00\x00\x00\x00\xf0?'
p3672
tp3673
bsg2285
I00
sg2286
F0.1111111111111111
sg2287
I1
sg2288
I00
sbsbaatp3674
Rp3675
sS'_anchor'
p3676
VC
p3677
sg44
Nsg1804
NsS'_use_sticky_edges'
p3678
I01
sbtp3679
tp3680
asS'_ind'
p3681
I1
sS'_pos'
p3682
I0
sbsg94
Nsg3461
(lp3683
sg1964
g39
sS'subplotpars'
p3684
g0
(cmatplotlib.figure
SubplotParams
p3685
g2
Ntp3686
Rp3687
(dp3688
g1995
F0.9
sg1997
F0.11
sg1998
F0.88
sg1999
F0.2
sS'validate'
p3689
I01
sg2001
F0.2
sg2003
F0.125
sbsg44
Nsg1804
NsS'bbox_inches'
p3690
g108
sS'transFigure'
p3691
g97
sS'_dpi'
p3692
F100.0
sb.